Component: Arm Compiler for Embedded 6.19 Tool: armlink [5e73cb00]

==============================================================================

Small function inlining results

Inlined function __aeabi_idiv0 from idiv0.o at offset 0x160 in aeabi_sdiv.o(.text).
Inlined Instruction: BX       lr
Inlined function __aeabi_idiv0 from idiv0.o at offset 0xc in aeabi_sdiv_div0.o(.text).
Inlined Instruction: BX       lr
Inlined function __aeabi_idiv0 from idiv0.o at offset 0x176 in aeabi_sdiv_div0.o(.text).
Inlined Instruction: BX       lr
Inlined function __aeabi_idiv0 from idiv0.o at offset 0x18 in uidiv_div0.o(.text).
Inlined Instruction: BX       lr
Inlined function __aeabi_idiv0 from idiv0.o at offset 0x42 in idiv_div0.o(.text).
Inlined Instruction: BX       lr
Inlined total of 5 calls.

==============================================================================

Section Cross References

    system_m2354.o(.text.FMC_NSBA_Setup) refers to system_m2354.o(.text.SYS_UnlockReg) for SYS_UnlockReg
    system_m2354.o(.ARM.exidx.text.FMC_NSBA_Setup) refers to system_m2354.o(.text.FMC_NSBA_Setup) for [Anonymous Symbol]
    system_m2354.o(.ARM.exidx.text.SYS_UnlockReg) refers to system_m2354.o(.text.SYS_UnlockReg) for [Anonymous Symbol]
    system_m2354.o(.text.SCU_Setup) refers to system_m2354.o(.text.__NVIC_EnableIRQ) for __NVIC_EnableIRQ
    system_m2354.o(.ARM.exidx.text.SCU_Setup) refers to system_m2354.o(.text.SCU_Setup) for [Anonymous Symbol]
    system_m2354.o(.ARM.exidx.text.__NVIC_EnableIRQ) refers to system_m2354.o(.text.__NVIC_EnableIRQ) for [Anonymous Symbol]
    system_m2354.o(.text.SCU_IRQHandler) refers to memcpya.o(.text) for __aeabi_memcpy4
    system_m2354.o(.text.SCU_IRQHandler) refers to printfa.o(i.__0printf) for printf
    system_m2354.o(.text.SCU_IRQHandler) refers to system_m2354.o(.rodata..L__const.SCU_IRQHandler.master) for [Anonymous Symbol]
    system_m2354.o(.text.SCU_IRQHandler) refers to system_m2354.o(.rodata..L__const.SCU_IRQHandler.ipname) for [Anonymous Symbol]
    system_m2354.o(.text.SCU_IRQHandler) refers to system_m2354.o(.rodata..L__const.SCU_IRQHandler.info) for [Anonymous Symbol]
    system_m2354.o(.text.SCU_IRQHandler) refers to system_m2354.o(.rodata.str1.1) for [Anonymous Symbol]
    system_m2354.o(.ARM.exidx.text.SCU_IRQHandler) refers to system_m2354.o(.text.SCU_IRQHandler) for [Anonymous Symbol]
    system_m2354.o(.ARM.exidx.text.NSC_Init) refers to system_m2354.o(.text.NSC_Init) for [Anonymous Symbol]
    system_m2354.o(.text.TZ_SAU_Setup) refers to system_m2354.o(.text.NSC_Init) for NSC_Init
    system_m2354.o(.ARM.exidx.text.TZ_SAU_Setup) refers to system_m2354.o(.text.TZ_SAU_Setup) for [Anonymous Symbol]
    system_m2354.o(.text.SystemCoreClockUpdate) refers to anon$$obj.o(Veneer$$CMSE) for CLK_GetPLLClockFreq
    system_m2354.o(.text.SystemCoreClockUpdate) refers to system_m2354.o(.data.PllClock) for PllClock
    system_m2354.o(.text.SystemCoreClockUpdate) refers to system_m2354.o(.data.SystemCoreClock) for SystemCoreClock
    system_m2354.o(.text.SystemCoreClockUpdate) refers to system_m2354.o(.data.CyclesPerUs) for CyclesPerUs
    system_m2354.o(.ARM.exidx.text.SystemCoreClockUpdate) refers to system_m2354.o(.text.SystemCoreClockUpdate) for [Anonymous Symbol]
    system_m2354.o(.text.SystemInit) refers to startup_m2354.o(.text) for __PC
    system_m2354.o(.text.SystemInit) refers to system_m2354.o(.text.TZ_SAU_Setup) for TZ_SAU_Setup
    system_m2354.o(.text.SystemInit) refers to system_m2354.o(.text.SCU_Setup) for SCU_Setup
    system_m2354.o(.text.SystemInit) refers to system_m2354.o(.text.FMC_NSBA_Setup) for FMC_NSBA_Setup
    system_m2354.o(.text.SystemInit) refers to startup_m2354.o(RESET) for __Vectors
    system_m2354.o(.ARM.exidx.text.SystemInit) refers to system_m2354.o(.text.SystemInit) for [Anonymous Symbol]
    system_m2354.o(.rodata..L__const.SCU_IRQHandler.master) refers to system_m2354.o(.rodata.str1.1) for [Anonymous Symbol]
    system_m2354.o(.rodata..L__const.SCU_IRQHandler.ipname) refers to system_m2354.o(.rodata.str1.1) for [Anonymous Symbol]
    startup_m2354.o(.STACK) refers (Special) to retarget.o(.text.SendChar_ToUART) for SendChar_ToUART
    startup_m2354.o(HEAP) refers (Special) to retarget.o(.text.SendChar_ToUART) for SendChar_ToUART
    startup_m2354.o(RESET) refers (Special) to retarget.o(.text.SendChar_ToUART) for SendChar_ToUART
    startup_m2354.o(RESET) refers to startup_m2354.o(.STACK) for __initial_sp
    startup_m2354.o(RESET) refers to startup_m2354.o(.text) for Reset_Handler
    startup_m2354.o(RESET) refers to system_m2354.o(.text.SCU_IRQHandler) for SCU_IRQHandler
    startup_m2354.o(.text) refers (Special) to retarget.o(.text.SendChar_ToUART) for SendChar_ToUART
    startup_m2354.o(.text) refers to startup_m2354.o(.STACK) for Stack_Mem
    startup_m2354.o(.text) refers to system_m2354.o(.text.SystemInit) for SystemInit
    startup_m2354.o(.text) refers to entry.o(.ARM.Collect$$$$00000000) for __main
    startup_m2354.o(.text) refers to retarget.o(.text.ProcessHardFault) for ProcessHardFault
    startup_m2354.o(.text) refers to retarget.o(.text.SH_Return) for SH_Return
    main.o(.text.SYS_Init) refers to clk.o(.text.CLK_EnableXtalRC) for CLK_EnableXtalRC
    main.o(.text.SYS_Init) refers to clk.o(.text.CLK_WaitClockReady) for CLK_WaitClockReady
    main.o(.text.SYS_Init) refers to clk.o(.text.CLK_SetCoreClock) for CLK_SetCoreClock
    main.o(.text.SYS_Init) refers to clk.o(.text.CLK_EnableModuleClock) for CLK_EnableModuleClock
    main.o(.text.SYS_Init) refers to clk.o(.text.CLK_SetModuleClock) for CLK_SetModuleClock
    main.o(.ARM.exidx.text.SYS_Init) refers to main.o(.text.SYS_Init) for [Anonymous Symbol]
    main.o(.text.UART_Init) refers to sys.o(.text.SYS_ResetModule) for SYS_ResetModule
    main.o(.text.UART_Init) refers to uart.o(.text.UART_Open) for UART_Open
    main.o(.ARM.exidx.text.UART_Init) refers to main.o(.text.UART_Init) for [Anonymous Symbol]
    main.o(.text.main) refers to main.o(.text.SYS_UnlockReg) for SYS_UnlockReg
    main.o(.text.main) refers to main.o(.text.SYS_Init) for SYS_Init
    main.o(.text.main) refers to main.o(.text.UART_Init) for UART_Init
    main.o(.text.main) refers to printfa.o(i.__0printf) for printf
    main.o(.text.main) refers to system_m2354.o(.data.SystemCoreClock) for SystemCoreClock
    main.o(.text.main) refers to main.o(.rodata.str1.1) for [Anonymous Symbol]
    main.o(.ARM.exidx.text.main) refers to main.o(.text.main) for [Anonymous Symbol]
    main.o(.ARM.exidx.text.SYS_UnlockReg) refers to main.o(.text.SYS_UnlockReg) for [Anonymous Symbol]
    retarget.o(.text.__aeabi_assert) refers to fputs.o(i.fputs) for fputs
    retarget.o(.text.__aeabi_assert) refers to retarget.o(.text.abort) for abort
    retarget.o(.text.__aeabi_assert) refers to retarget.o(.rodata.str1.1) for [Anonymous Symbol]
    retarget.o(.text.__aeabi_assert) refers to stderr.o(.data) for __stderr
    retarget.o(.ARM.exidx.text.__aeabi_assert) refers to retarget.o(.text.__aeabi_assert) for [Anonymous Symbol]
    retarget.o(.ARM.exidx.text.abort) refers to retarget.o(.text.abort) for [Anonymous Symbol]
    retarget.o(.text.ProcessHardFault) refers to printfa.o(i.__0printf) for printf
    retarget.o(.text.ProcessHardFault) refers to memcpya.o(.text) for __aeabi_memcpy4
    retarget.o(.text.ProcessHardFault) refers to retarget.o(.rodata.str1.1) for [Anonymous Symbol]
    retarget.o(.text.ProcessHardFault) refers to retarget.o(.rodata..L__const.ProcessHardFault.master) for [Anonymous Symbol]
    retarget.o(.text.ProcessHardFault) refers to retarget.o(.rodata..L__const.ProcessHardFault.ipname) for [Anonymous Symbol]
    retarget.o(.text.ProcessHardFault) refers to retarget.o(.rodata..L__const.ProcessHardFault.info) for [Anonymous Symbol]
    retarget.o(.ARM.exidx.text.ProcessHardFault) refers to retarget.o(.text.ProcessHardFault) for [Anonymous Symbol]
    retarget.o(.ARM.exidx.text.SH_Return) refers to retarget.o(.text.SH_Return) for [Anonymous Symbol]
    retarget.o(.ARM.exidx.text.SendChar_ToUART) refers to retarget.o(.text.SendChar_ToUART) for [Anonymous Symbol]
    retarget.o(.text.SendChar) refers to retarget.o(.text.SendChar_ToUART) for SendChar_ToUART
    retarget.o(.ARM.exidx.text.SendChar) refers to retarget.o(.text.SendChar) for [Anonymous Symbol]
    retarget.o(.ARM.exidx.text.GetChar) refers to retarget.o(.text.GetChar) for [Anonymous Symbol]
    retarget.o(.ARM.exidx.text.kbhit) refers to retarget.o(.text.kbhit) for [Anonymous Symbol]
    retarget.o(.ARM.exidx.text.IsDebugFifoEmpty) refers to retarget.o(.text.IsDebugFifoEmpty) for [Anonymous Symbol]
    retarget.o(.text._ttywrch) refers to retarget.o(.text.SendChar) for SendChar
    retarget.o(.ARM.exidx.text._ttywrch) refers to retarget.o(.text._ttywrch) for [Anonymous Symbol]
    retarget.o(.text.fputc) refers to retarget.o(.text.SendChar) for SendChar
    retarget.o(.ARM.exidx.text.fputc) refers to retarget.o(.text.fputc) for [Anonymous Symbol]
    retarget.o(.text.fgetc) refers to retarget.o(.text.GetChar) for GetChar
    retarget.o(.ARM.exidx.text.fgetc) refers to retarget.o(.text.fgetc) for [Anonymous Symbol]
    retarget.o(.ARM.exidx.text.ferror) refers to retarget.o(.text.ferror) for [Anonymous Symbol]
    retarget.o(.rodata..L__const.ProcessHardFault.master) refers to retarget.o(.rodata.str1.1) for [Anonymous Symbol]
    retarget.o(.rodata..L__const.ProcessHardFault.ipname) refers to retarget.o(.rodata.str1.1) for [Anonymous Symbol]
    sys.o(.ARM.exidx.text.SYS_ClearResetSrc) refers to sys.o(.text.SYS_ClearResetSrc) for [Anonymous Symbol]
    sys.o(.ARM.exidx.text.SYS_GetBODStatus) refers to sys.o(.text.SYS_GetBODStatus) for [Anonymous Symbol]
    sys.o(.ARM.exidx.text.SYS_GetResetSrc) refers to sys.o(.text.SYS_GetResetSrc) for [Anonymous Symbol]
    sys.o(.ARM.exidx.text.SYS_IsRegLocked) refers to sys.o(.text.SYS_IsRegLocked) for [Anonymous Symbol]
    sys.o(.ARM.exidx.text.SYS_ReadPDID) refers to sys.o(.text.SYS_ReadPDID) for [Anonymous Symbol]
    sys.o(.ARM.exidx.text.SYS_ResetChip) refers to sys.o(.text.SYS_ResetChip) for [Anonymous Symbol]
    sys.o(.ARM.exidx.text.SYS_ResetCPU) refers to sys.o(.text.SYS_ResetCPU) for [Anonymous Symbol]
    sys.o(.ARM.exidx.text.SYS_ResetModule) refers to sys.o(.text.SYS_ResetModule) for [Anonymous Symbol]
    sys.o(.text.SYS_EnableBOD) refers to system_m2354.o(.data.SystemCoreClock) for SystemCoreClock
    sys.o(.ARM.exidx.text.SYS_EnableBOD) refers to sys.o(.text.SYS_EnableBOD) for [Anonymous Symbol]
    sys.o(.text.SYS_DisableBOD) refers to system_m2354.o(.data.SystemCoreClock) for SystemCoreClock
    sys.o(.ARM.exidx.text.SYS_DisableBOD) refers to sys.o(.text.SYS_DisableBOD) for [Anonymous Symbol]
    sys.o(.text.SYS_SetPowerLevel) refers to system_m2354.o(.data.SystemCoreClock) for SystemCoreClock
    sys.o(.ARM.exidx.text.SYS_SetPowerLevel) refers to sys.o(.text.SYS_SetPowerLevel) for [Anonymous Symbol]
    sys.o(.text.SYS_SetPowerRegulator) refers to system_m2354.o(.data.SystemCoreClock) for SystemCoreClock
    sys.o(.ARM.exidx.text.SYS_SetPowerRegulator) refers to sys.o(.text.SYS_SetPowerRegulator) for [Anonymous Symbol]
    sys.o(.text.SYS_SetSSRAMPowerMode) refers to system_m2354.o(.data.SystemCoreClock) for SystemCoreClock
    sys.o(.ARM.exidx.text.SYS_SetSSRAMPowerMode) refers to sys.o(.text.SYS_SetSSRAMPowerMode) for [Anonymous Symbol]
    sys.o(.text.SYS_SetPSRAMPowerMode) refers to system_m2354.o(.data.SystemCoreClock) for SystemCoreClock
    sys.o(.ARM.exidx.text.SYS_SetPSRAMPowerMode) refers to sys.o(.text.SYS_SetPSRAMPowerMode) for [Anonymous Symbol]
    sys.o(.ARM.exidx.text.SYS_SetVRef) refers to sys.o(.text.SYS_SetVRef) for [Anonymous Symbol]
    clk.o(.ARM.exidx.text.CLK_DisableCKO) refers to clk.o(.text.CLK_DisableCKO) for [Anonymous Symbol]
    clk.o(.ARM.exidx.text.CLK_EnableCKO) refers to clk.o(.text.CLK_EnableCKO) for [Anonymous Symbol]
    clk.o(.ARM.exidx.text.CLK_PowerDown) refers to clk.o(.text.CLK_PowerDown) for [Anonymous Symbol]
    clk.o(.ARM.exidx.text.CLK_Idle) refers to clk.o(.text.CLK_Idle) for [Anonymous Symbol]
    clk.o(.ARM.exidx.text.CLK_GetHXTFreq) refers to clk.o(.text.CLK_GetHXTFreq) for [Anonymous Symbol]
    clk.o(.ARM.exidx.text.CLK_GetLXTFreq) refers to clk.o(.text.CLK_GetLXTFreq) for [Anonymous Symbol]
    clk.o(.text.CLK_GetHCLKFreq) refers to system_m2354.o(.text.SystemCoreClockUpdate) for SystemCoreClockUpdate
    clk.o(.text.CLK_GetHCLKFreq) refers to system_m2354.o(.data.SystemCoreClock) for SystemCoreClock
    clk.o(.ARM.exidx.text.CLK_GetHCLKFreq) refers to clk.o(.text.CLK_GetHCLKFreq) for [Anonymous Symbol]
    clk.o(.text.CLK_GetPCLK0Freq) refers to system_m2354.o(.text.SystemCoreClockUpdate) for SystemCoreClockUpdate
    clk.o(.text.CLK_GetPCLK0Freq) refers to system_m2354.o(.data.SystemCoreClock) for SystemCoreClock
    clk.o(.ARM.exidx.text.CLK_GetPCLK0Freq) refers to clk.o(.text.CLK_GetPCLK0Freq) for [Anonymous Symbol]
    clk.o(.text.CLK_GetPCLK1Freq) refers to system_m2354.o(.text.SystemCoreClockUpdate) for SystemCoreClockUpdate
    clk.o(.text.CLK_GetPCLK1Freq) refers to system_m2354.o(.data.SystemCoreClock) for SystemCoreClock
    clk.o(.ARM.exidx.text.CLK_GetPCLK1Freq) refers to clk.o(.text.CLK_GetPCLK1Freq) for [Anonymous Symbol]
    clk.o(.text.CLK_GetCPUFreq) refers to clk.o(.rodata.cst32) for [Anonymous Symbol]
    clk.o(.text.CLK_GetCPUFreq) refers to system_m2354.o(.data.PllClock) for PllClock
    clk.o(.text.CLK_GetCPUFreq) refers to system_m2354.o(.data.SystemCoreClock) for SystemCoreClock
    clk.o(.text.CLK_GetCPUFreq) refers to system_m2354.o(.data.CyclesPerUs) for CyclesPerUs
    clk.o(.ARM.exidx.text.CLK_GetCPUFreq) refers to clk.o(.text.CLK_GetCPUFreq) for [Anonymous Symbol]
    clk.o(.text.CLK_SetCoreClock) refers to clk.o(.text.CLK_WaitClockReady) for CLK_WaitClockReady
    clk.o(.text.CLK_SetCoreClock) refers to clk.o(.text.CLK_EnablePLL) for CLK_EnablePLL
    clk.o(.text.CLK_SetCoreClock) refers to clk.o(.text.CLK_SetHCLK) for CLK_SetHCLK
    clk.o(.ARM.exidx.text.CLK_SetCoreClock) refers to clk.o(.text.CLK_SetCoreClock) for [Anonymous Symbol]
    clk.o(.text.CLK_WaitClockReady) refers to system_m2354.o(.data.SystemCoreClock) for SystemCoreClock
    clk.o(.ARM.exidx.text.CLK_WaitClockReady) refers to clk.o(.text.CLK_WaitClockReady) for [Anonymous Symbol]
    clk.o(.text.CLK_EnablePLL) refers to clk.o(.text.CLK_WaitClockReady) for CLK_WaitClockReady
    clk.o(.ARM.exidx.text.CLK_EnablePLL) refers to clk.o(.text.CLK_EnablePLL) for [Anonymous Symbol]
    clk.o(.text.CLK_SetHCLK) refers to clk.o(.text.CLK_WaitClockReady) for CLK_WaitClockReady
    clk.o(.text.CLK_SetHCLK) refers to system_m2354.o(.text.SystemCoreClockUpdate) for SystemCoreClockUpdate
    clk.o(.text.CLK_SetHCLK) refers to system_m2354.o(.data.SystemCoreClock) for SystemCoreClock
    clk.o(.ARM.exidx.text.CLK_SetHCLK) refers to clk.o(.text.CLK_SetHCLK) for [Anonymous Symbol]
    clk.o(.ARM.exidx.text.CLK_SetModuleClock) refers to clk.o(.text.CLK_SetModuleClock) for [Anonymous Symbol]
    clk.o(.ARM.exidx.text.CLK_SetSysTickClockSrc) refers to clk.o(.text.CLK_SetSysTickClockSrc) for [Anonymous Symbol]
    clk.o(.ARM.exidx.text.CLK_EnableXtalRC) refers to clk.o(.text.CLK_EnableXtalRC) for [Anonymous Symbol]
    clk.o(.ARM.exidx.text.CLK_DisableXtalRC) refers to clk.o(.text.CLK_DisableXtalRC) for [Anonymous Symbol]
    clk.o(.ARM.exidx.text.CLK_EnableModuleClock) refers to clk.o(.text.CLK_EnableModuleClock) for [Anonymous Symbol]
    clk.o(.ARM.exidx.text.CLK_DisableModuleClock) refers to clk.o(.text.CLK_DisableModuleClock) for [Anonymous Symbol]
    clk.o(.ARM.exidx.text.CLK_DisablePLL) refers to clk.o(.text.CLK_DisablePLL) for [Anonymous Symbol]
    clk.o(.ARM.exidx.text.CLK_EnableSysTick) refers to clk.o(.text.CLK_EnableSysTick) for [Anonymous Symbol]
    clk.o(.ARM.exidx.text.CLK_DisableSysTick) refers to clk.o(.text.CLK_DisableSysTick) for [Anonymous Symbol]
    clk.o(.text.CLK_SetPowerDownMode) refers to system_m2354.o(.data.SystemCoreClock) for SystemCoreClock
    clk.o(.ARM.exidx.text.CLK_SetPowerDownMode) refers to clk.o(.text.CLK_SetPowerDownMode) for [Anonymous Symbol]
    clk.o(.text.CLK_EnableDPDWKPin) refers to system_m2354.o(.data.SystemCoreClock) for SystemCoreClock
    clk.o(.ARM.exidx.text.CLK_EnableDPDWKPin) refers to clk.o(.text.CLK_EnableDPDWKPin) for [Anonymous Symbol]
    clk.o(.ARM.exidx.text.CLK_GetPMUWKSrc) refers to clk.o(.text.CLK_GetPMUWKSrc) for [Anonymous Symbol]
    clk.o(.ARM.exidx.text.CLK_EnableSPDWKPin) refers to clk.o(.text.CLK_EnableSPDWKPin) for [Anonymous Symbol]
    clk.o(.ARM.exidx.text.CLK_GetPLLClockFreq) refers to clk.o(.text.CLK_GetPLLClockFreq) for [Anonymous Symbol]
    clk.o(.ARM.exidx.text.CLK_GetModuleClockSource) refers to clk.o(.text.CLK_GetModuleClockSource) for [Anonymous Symbol]
    clk.o(.ARM.exidx.text.CLK_GetModuleClockDivider) refers to clk.o(.text.CLK_GetModuleClockDivider) for [Anonymous Symbol]
    uart.o(.ARM.exidx.text.UART_ClearIntFlag) refers to uart.o(.text.UART_ClearIntFlag) for [Anonymous Symbol]
    uart.o(.ARM.exidx.text.UART_Close) refers to uart.o(.text.UART_Close) for [Anonymous Symbol]
    uart.o(.ARM.exidx.text.UART_DisableFlowCtrl) refers to uart.o(.text.UART_DisableFlowCtrl) for [Anonymous Symbol]
    uart.o(.ARM.exidx.text.UART_DisableInt) refers to uart.o(.text.UART_DisableInt) for [Anonymous Symbol]
    uart.o(.ARM.exidx.text.UART_EnableFlowCtrl) refers to uart.o(.text.UART_EnableFlowCtrl) for [Anonymous Symbol]
    uart.o(.ARM.exidx.text.UART_EnableInt) refers to uart.o(.text.UART_EnableInt) for [Anonymous Symbol]
    uart.o(.text.UART_Open) refers to anon$$obj.o(Veneer$$CMSE) for CLK_GetModuleClockSource
    uart.o(.text.UART_Open) refers to uart.o(.rodata.cst32) for [Anonymous Symbol]
    uart.o(.ARM.exidx.text.UART_Open) refers to uart.o(.text.UART_Open) for [Anonymous Symbol]
    uart.o(.ARM.exidx.text.UART_Read) refers to uart.o(.text.UART_Read) for [Anonymous Symbol]
    uart.o(.text.UART_SetLineConfig) refers to anon$$obj.o(Veneer$$CMSE) for CLK_GetModuleClockSource
    uart.o(.text.UART_SetLineConfig) refers to uart.o(.rodata.cst32) for [Anonymous Symbol]
    uart.o(.ARM.exidx.text.UART_SetLineConfig) refers to uart.o(.text.UART_SetLineConfig) for [Anonymous Symbol]
    uart.o(.ARM.exidx.text.UART_SetTimeoutCnt) refers to uart.o(.text.UART_SetTimeoutCnt) for [Anonymous Symbol]
    uart.o(.text.UART_SelectIrDAMode) refers to anon$$obj.o(Veneer$$CMSE) for CLK_GetModuleClockSource
    uart.o(.text.UART_SelectIrDAMode) refers to uart.o(.rodata.cst32) for [Anonymous Symbol]
    uart.o(.ARM.exidx.text.UART_SelectIrDAMode) refers to uart.o(.text.UART_SelectIrDAMode) for [Anonymous Symbol]
    uart.o(.ARM.exidx.text.UART_SelectRS485Mode) refers to uart.o(.text.UART_SelectRS485Mode) for [Anonymous Symbol]
    uart.o(.ARM.exidx.text.UART_SelectLINMode) refers to uart.o(.text.UART_SelectLINMode) for [Anonymous Symbol]
    uart.o(.ARM.exidx.text.UART_Write) refers to uart.o(.text.UART_Write) for [Anonymous Symbol]
    uart.o(.ARM.exidx.text.UART_SelectSingleWireMode) refers to uart.o(.text.UART_SelectSingleWireMode) for [Anonymous Symbol]
    entry.o(.ARM.Collect$$$$00000000) refers (Special) to entry10a.o(.ARM.Collect$$$$0000000D) for __rt_final_cpp
    entry.o(.ARM.Collect$$$$00000000) refers (Special) to entry11a.o(.ARM.Collect$$$$0000000F) for __rt_final_exit
    entry.o(.ARM.Collect$$$$00000000) refers (Special) to entry7b.o(.ARM.Collect$$$$00000008) for _main_clock
    entry.o(.ARM.Collect$$$$00000000) refers (Special) to entry8b.o(.ARM.Collect$$$$0000000A) for _main_cpp_init
    entry.o(.ARM.Collect$$$$00000000) refers (Special) to entry9a.o(.ARM.Collect$$$$0000000B) for _main_init
    entry.o(.ARM.Collect$$$$00000000) refers (Special) to entry5.o(.ARM.Collect$$$$00000004) for _main_scatterload
    entry.o(.ARM.Collect$$$$00000000) refers (Special) to entry2.o(.ARM.Collect$$$$00000001) for _main_stk
    fputs.o(i.fputs) refers to retarget.o(.text.fputc) for fputc
    fputs_e.o(.text) refers to retarget.o(.text.fputc) for fputc
    printfa.o(i.__0fprintf) refers (Special) to iusefp.o(.text) for __I$use$fp
    printfa.o(i.__0fprintf) refers to printfa.o(i._printf_core) for _printf_core
    printfa.o(i.__0fprintf) refers to retarget.o(.text.fputc) for fputc
    printfa.o(i.__0printf) refers (Special) to iusefp.o(.text) for __I$use$fp
    printfa.o(i.__0printf) refers to printfa.o(i._printf_core) for _printf_core
    printfa.o(i.__0printf) refers to retarget.o(.text.fputc) for fputc
    printfa.o(i.__0printf) refers to retarget.o(.bss.__stdout) for __stdout
    printfa.o(i.__0snprintf) refers (Special) to iusefp.o(.text) for __I$use$fp
    printfa.o(i.__0snprintf) refers to printfa.o(i._printf_core) for _printf_core
    printfa.o(i.__0snprintf) refers to printfa.o(i._snputc) for _snputc
    printfa.o(i.__0sprintf) refers (Special) to iusefp.o(.text) for __I$use$fp
    printfa.o(i.__0sprintf) refers to printfa.o(i._printf_core) for _printf_core
    printfa.o(i.__0sprintf) refers to printfa.o(i._sputc) for _sputc
    printfa.o(i.__0vfprintf) refers (Special) to iusefp.o(.text) for __I$use$fp
    printfa.o(i.__0vfprintf) refers to printfa.o(i._printf_core) for _printf_core
    printfa.o(i.__0vfprintf) refers to retarget.o(.text.fputc) for fputc
    printfa.o(i.__0vprintf) refers (Special) to iusefp.o(.text) for __I$use$fp
    printfa.o(i.__0vprintf) refers to printfa.o(i._printf_core) for _printf_core
    printfa.o(i.__0vprintf) refers to retarget.o(.text.fputc) for fputc
    printfa.o(i.__0vprintf) refers to retarget.o(.bss.__stdout) for __stdout
    printfa.o(i.__0vsnprintf) refers (Special) to iusefp.o(.text) for __I$use$fp
    printfa.o(i.__0vsnprintf) refers to printfa.o(i._printf_core) for _printf_core
    printfa.o(i.__0vsnprintf) refers to printfa.o(i._snputc) for _snputc
    printfa.o(i.__0vsprintf) refers (Special) to iusefp.o(.text) for __I$use$fp
    printfa.o(i.__0vsprintf) refers to printfa.o(i._printf_core) for _printf_core
    printfa.o(i.__0vsprintf) refers to printfa.o(i._sputc) for _sputc
    printfa.o(i._fp_digits) refers (Special) to iusefp.o(.text) for __I$use$fp
    printfa.o(i._fp_digits) refers to dmul.o(.text) for __aeabi_dmul
    printfa.o(i._fp_digits) refers to ddiv.o(.text) for __aeabi_ddiv
    printfa.o(i._fp_digits) refers to cdrcmple.o(.text) for __aeabi_cdrcmple
    printfa.o(i._fp_digits) refers to dadd.o(.text) for __aeabi_dadd
    printfa.o(i._fp_digits) refers to dfixul.o(.text) for __aeabi_d2ulz
    printfa.o(i._fp_digits) refers to uldiv.o(.text) for __aeabi_uldivmod
    printfa.o(i._printf_core) refers (Special) to iusefp.o(.text) for __I$use$fp
    printfa.o(i._printf_core) refers to printfa.o(i._printf_pre_padding) for _printf_pre_padding
    printfa.o(i._printf_core) refers to uldiv.o(.text) for __aeabi_uldivmod
    printfa.o(i._printf_core) refers to printfa.o(i._printf_post_padding) for _printf_post_padding
    printfa.o(i._printf_core) refers to printfa.o(i._fp_digits) for _fp_digits
    printfa.o(i._printf_core) refers to uidiv_div0.o(.text) for __aeabi_uidivmod
    printfa.o(i._printf_post_padding) refers (Special) to iusefp.o(.text) for __I$use$fp
    printfa.o(i._printf_pre_padding) refers (Special) to iusefp.o(.text) for __I$use$fp
    printfa.o(i._snputc) refers (Special) to iusefp.o(.text) for __I$use$fp
    printfa.o(i._sputc) refers (Special) to iusefp.o(.text) for __I$use$fp
    entry2.o(.ARM.Collect$$$$00000001) refers to entry2.o(.ARM.Collect$$$$00002712) for __lit__00000000
    entry2.o(.ARM.Collect$$$$00002712) refers to startup_m2354.o(.STACK) for __initial_sp
    entry2.o(__vectab_stack_and_reset_area) refers to startup_m2354.o(.STACK) for __initial_sp
    entry2.o(__vectab_stack_and_reset_area) refers to entry.o(.ARM.Collect$$$$00000000) for __main
    entry5.o(.ARM.Collect$$$$00000004) refers to init.o(.text) for __scatterload
    entry9a.o(.ARM.Collect$$$$0000000B) refers to main.o(.text.main) for main
    entry9b.o(.ARM.Collect$$$$0000000C) refers to main.o(.text.main) for main
    uldiv.o(.text) refers to llushr.o(.text) for __aeabi_llsr
    uldiv.o(.text) refers to llshl.o(.text) for __aeabi_llsl
    dadd.o(.text) refers (Special) to iusefp.o(.text) for __I$use$fp
    dadd.o(.text) refers to llshl.o(.text) for __aeabi_llsl
    dadd.o(.text) refers to llsshr.o(.text) for __aeabi_lasr
    dadd.o(.text) refers to depilogue.o(.text) for _double_epilogue
    dmul.o(.text) refers (Special) to iusefp.o(.text) for __I$use$fp
    dmul.o(.text) refers to depilogue.o(.text) for _double_epilogue
    ddiv.o(.text) refers (Special) to iusefp.o(.text) for __I$use$fp
    ddiv.o(.text) refers to depilogue.o(.text) for _double_round
    dfixul.o(.text) refers (Special) to iusefp.o(.text) for __I$use$fp
    dfixul.o(.text) refers to llushr.o(.text) for __aeabi_llsr
    dfixul.o(.text) refers to llshl.o(.text) for __aeabi_llsl
    cdrcmple.o(.text) refers (Special) to iusefp.o(.text) for __I$use$fp
    init.o(.text) refers to entry5.o(.ARM.Collect$$$$00000004) for __main_after_scatterload
    idiv_div0.o(.text) refers to uidiv_div0.o(.text) for __aeabi_uidivmod
    depilogue.o(.text) refers (Special) to iusefp.o(.text) for __I$use$fp
    depilogue.o(.text) refers to depilogue.o(i.__ARM_clz) for __ARM_clz
    depilogue.o(.text) refers to llshl.o(.text) for __aeabi_llsl
    depilogue.o(.text) refers to llushr.o(.text) for __aeabi_llsr
    depilogue.o(i.__ARM_clz) refers (Special) to iusefp.o(.text) for __I$use$fp
    anon$$obj.o(Veneer$$CMSE) refers to clk.o(.text.CLK_GetHXTFreq) for __acle_se_CLK_GetHXTFreq
    anon$$obj.o(Veneer$$CMSE) refers to clk.o(.text.CLK_GetLXTFreq) for __acle_se_CLK_GetLXTFreq
    anon$$obj.o(Veneer$$CMSE) refers to clk.o(.text.CLK_GetHCLKFreq) for __acle_se_CLK_GetHCLKFreq
    anon$$obj.o(Veneer$$CMSE) refers to clk.o(.text.CLK_GetPCLK0Freq) for __acle_se_CLK_GetPCLK0Freq
    anon$$obj.o(Veneer$$CMSE) refers to clk.o(.text.CLK_GetPCLK1Freq) for __acle_se_CLK_GetPCLK1Freq
    anon$$obj.o(Veneer$$CMSE) refers to clk.o(.text.CLK_GetCPUFreq) for __acle_se_CLK_GetCPUFreq
    anon$$obj.o(Veneer$$CMSE) refers to clk.o(.text.CLK_GetPLLClockFreq) for __acle_se_CLK_GetPLLClockFreq
    anon$$obj.o(Veneer$$CMSE) refers to clk.o(.text.CLK_GetModuleClockSource) for __acle_se_CLK_GetModuleClockSource
    anon$$obj.o(Veneer$$CMSE) refers to clk.o(.text.CLK_GetModuleClockDivider) for __acle_se_CLK_GetModuleClockDivider


==============================================================================

Removing Unused input sections from the image.

    Removing system_m2354.o(.text), (0 bytes).
    Removing system_m2354.o(.ARM.exidx.text.FMC_NSBA_Setup), (8 bytes).
    Removing system_m2354.o(.ARM.exidx.text.SYS_UnlockReg), (8 bytes).
    Removing system_m2354.o(.ARM.exidx.text.SCU_Setup), (8 bytes).
    Removing system_m2354.o(.ARM.exidx.text.__NVIC_EnableIRQ), (8 bytes).
    Removing system_m2354.o(.ARM.exidx.text.SCU_IRQHandler), (8 bytes).
    Removing system_m2354.o(.ARM.exidx.text.NSC_Init), (8 bytes).
    Removing system_m2354.o(.ARM.exidx.text.TZ_SAU_Setup), (8 bytes).
    Removing system_m2354.o(.ARM.exidx.text.SystemCoreClockUpdate), (8 bytes).
    Removing system_m2354.o(.ARM.exidx.text.SystemInit), (8 bytes).
    Removing startup_m2354.o(HEAP), (6144 bytes).
    Removing main.o(.text), (0 bytes).
    Removing main.o(.ARM.exidx.text.SYS_Init), (8 bytes).
    Removing main.o(.ARM.exidx.text.UART_Init), (8 bytes).
    Removing main.o(.ARM.exidx.text.main), (8 bytes).
    Removing main.o(.ARM.exidx.text.SYS_UnlockReg), (8 bytes).
    Removing main.o(.ARM.use_no_argv), (4 bytes).
    Removing retarget.o(.text), (0 bytes).
    Removing retarget.o(.text.__aeabi_assert), (148 bytes).
    Removing retarget.o(.ARM.exidx.text.__aeabi_assert), (8 bytes).
    Removing retarget.o(.text.abort), (4 bytes).
    Removing retarget.o(.ARM.exidx.text.abort), (8 bytes).
    Removing retarget.o(.ARM.exidx.text.ProcessHardFault), (8 bytes).
    Removing retarget.o(.ARM.exidx.text.SH_Return), (8 bytes).
    Removing retarget.o(.ARM.exidx.text.SendChar_ToUART), (8 bytes).
    Removing retarget.o(.ARM.exidx.text.SendChar), (8 bytes).
    Removing retarget.o(.text.GetChar), (32 bytes).
    Removing retarget.o(.ARM.exidx.text.GetChar), (8 bytes).
    Removing retarget.o(.text.kbhit), (20 bytes).
    Removing retarget.o(.ARM.exidx.text.kbhit), (8 bytes).
    Removing retarget.o(.text.IsDebugFifoEmpty), (20 bytes).
    Removing retarget.o(.ARM.exidx.text.IsDebugFifoEmpty), (8 bytes).
    Removing retarget.o(.text._ttywrch), (16 bytes).
    Removing retarget.o(.ARM.exidx.text._ttywrch), (8 bytes).
    Removing retarget.o(.ARM.exidx.text.fputc), (8 bytes).
    Removing retarget.o(.text.fgetc), (14 bytes).
    Removing retarget.o(.ARM.exidx.text.fgetc), (8 bytes).
    Removing retarget.o(.text.ferror), (12 bytes).
    Removing retarget.o(.ARM.exidx.text.ferror), (8 bytes).
    Removing retarget.o(.bss.__stdin), (84 bytes).
    Removing sys.o(.text), (0 bytes).
    Removing sys.o(.text.SYS_ClearResetSrc), (20 bytes).
    Removing sys.o(.ARM.exidx.text.SYS_ClearResetSrc), (8 bytes).
    Removing sys.o(.text.SYS_GetBODStatus), (16 bytes).
    Removing sys.o(.ARM.exidx.text.SYS_GetBODStatus), (8 bytes).
    Removing sys.o(.text.SYS_GetResetSrc), (12 bytes).
    Removing sys.o(.ARM.exidx.text.SYS_GetResetSrc), (8 bytes).
    Removing sys.o(.text.SYS_IsRegLocked), (20 bytes).
    Removing sys.o(.ARM.exidx.text.SYS_IsRegLocked), (8 bytes).
    Removing sys.o(.text.SYS_ReadPDID), (8 bytes).
    Removing sys.o(.ARM.exidx.text.SYS_ReadPDID), (8 bytes).
    Removing sys.o(.text.SYS_ResetChip), (16 bytes).
    Removing sys.o(.ARM.exidx.text.SYS_ResetChip), (8 bytes).
    Removing sys.o(.text.SYS_ResetCPU), (16 bytes).
    Removing sys.o(.ARM.exidx.text.SYS_ResetCPU), (8 bytes).
    Removing sys.o(.ARM.exidx.text.SYS_ResetModule), (8 bytes).
    Removing sys.o(.text.SYS_EnableBOD), (108 bytes).
    Removing sys.o(.ARM.exidx.text.SYS_EnableBOD), (8 bytes).
    Removing sys.o(.text.SYS_DisableBOD), (88 bytes).
    Removing sys.o(.ARM.exidx.text.SYS_DisableBOD), (8 bytes).
    Removing sys.o(.text.SYS_SetPowerLevel), (124 bytes).
    Removing sys.o(.ARM.exidx.text.SYS_SetPowerLevel), (8 bytes).
    Removing sys.o(.text.SYS_SetPowerRegulator), (324 bytes).
    Removing sys.o(.ARM.exidx.text.SYS_SetPowerRegulator), (8 bytes).
    Removing sys.o(.text.SYS_SetSSRAMPowerMode), (196 bytes).
    Removing sys.o(.ARM.exidx.text.SYS_SetSSRAMPowerMode), (8 bytes).
    Removing sys.o(.text.SYS_SetPSRAMPowerMode), (120 bytes).
    Removing sys.o(.ARM.exidx.text.SYS_SetPSRAMPowerMode), (8 bytes).
    Removing sys.o(.text.SYS_SetVRef), (28 bytes).
    Removing sys.o(.ARM.exidx.text.SYS_SetVRef), (8 bytes).
    Removing clk.o(.text), (0 bytes).
    Removing clk.o(.text.CLK_DisableCKO), (16 bytes).
    Removing clk.o(.ARM.exidx.text.CLK_DisableCKO), (8 bytes).
    Removing clk.o(.text.CLK_EnableCKO), (68 bytes).
    Removing clk.o(.ARM.exidx.text.CLK_EnableCKO), (8 bytes).
    Removing clk.o(.text.CLK_PowerDown), (80 bytes).
    Removing clk.o(.ARM.exidx.text.CLK_PowerDown), (8 bytes).
    Removing clk.o(.text.CLK_Idle), (32 bytes).
    Removing clk.o(.ARM.exidx.text.CLK_Idle), (8 bytes).
    Removing clk.o(.ARM.exidx.text.CLK_GetHXTFreq), (8 bytes).
    Removing clk.o(.ARM.exidx.text.CLK_GetLXTFreq), (8 bytes).
    Removing clk.o(.ARM.exidx.text.CLK_GetHCLKFreq), (8 bytes).
    Removing clk.o(.ARM.exidx.text.CLK_GetPCLK0Freq), (8 bytes).
    Removing clk.o(.ARM.exidx.text.CLK_GetPCLK1Freq), (8 bytes).
    Removing clk.o(.ARM.exidx.text.CLK_GetCPUFreq), (8 bytes).
    Removing clk.o(.ARM.exidx.text.CLK_SetCoreClock), (8 bytes).
    Removing clk.o(.ARM.exidx.text.CLK_WaitClockReady), (8 bytes).
    Removing clk.o(.ARM.exidx.text.CLK_EnablePLL), (8 bytes).
    Removing clk.o(.ARM.exidx.text.CLK_SetHCLK), (8 bytes).
    Removing clk.o(.ARM.exidx.text.CLK_SetModuleClock), (8 bytes).
    Removing clk.o(.text.CLK_SetSysTickClockSrc), (28 bytes).
    Removing clk.o(.ARM.exidx.text.CLK_SetSysTickClockSrc), (8 bytes).
    Removing clk.o(.ARM.exidx.text.CLK_EnableXtalRC), (8 bytes).
    Removing clk.o(.text.CLK_DisableXtalRC), (24 bytes).
    Removing clk.o(.ARM.exidx.text.CLK_DisableXtalRC), (8 bytes).
    Removing clk.o(.ARM.exidx.text.CLK_EnableModuleClock), (8 bytes).
    Removing clk.o(.text.CLK_DisableModuleClock), (60 bytes).
    Removing clk.o(.ARM.exidx.text.CLK_DisableModuleClock), (8 bytes).
    Removing clk.o(.text.CLK_DisablePLL), (20 bytes).
    Removing clk.o(.ARM.exidx.text.CLK_DisablePLL), (8 bytes).
    Removing clk.o(.text.CLK_EnableSysTick), (124 bytes).
    Removing clk.o(.ARM.exidx.text.CLK_EnableSysTick), (8 bytes).
    Removing clk.o(.text.CLK_DisableSysTick), (12 bytes).
    Removing clk.o(.ARM.exidx.text.CLK_DisableSysTick), (8 bytes).
    Removing clk.o(.text.CLK_SetPowerDownMode), (68 bytes).
    Removing clk.o(.ARM.exidx.text.CLK_SetPowerDownMode), (8 bytes).
    Removing clk.o(.text.CLK_EnableDPDWKPin), (208 bytes).
    Removing clk.o(.ARM.exidx.text.CLK_EnableDPDWKPin), (8 bytes).
    Removing clk.o(.text.CLK_GetPMUWKSrc), (12 bytes).
    Removing clk.o(.ARM.exidx.text.CLK_GetPMUWKSrc), (8 bytes).
    Removing clk.o(.text.CLK_EnableSPDWKPin), (80 bytes).
    Removing clk.o(.ARM.exidx.text.CLK_EnableSPDWKPin), (8 bytes).
    Removing clk.o(.ARM.exidx.text.CLK_GetPLLClockFreq), (8 bytes).
    Removing clk.o(.ARM.exidx.text.CLK_GetModuleClockSource), (8 bytes).
    Removing clk.o(.ARM.exidx.text.CLK_GetModuleClockDivider), (8 bytes).
    Removing clk.o(.rodata.cst4), (8 bytes).
    Removing clk.o(.rodata.cst16), (64 bytes).
    Removing uart.o(.text), (0 bytes).
    Removing uart.o(.text.UART_ClearIntFlag), (148 bytes).
    Removing uart.o(.ARM.exidx.text.UART_ClearIntFlag), (8 bytes).
    Removing uart.o(.text.UART_Close), (14 bytes).
    Removing uart.o(.ARM.exidx.text.UART_Close), (8 bytes).
    Removing uart.o(.text.UART_DisableFlowCtrl), (20 bytes).
    Removing uart.o(.ARM.exidx.text.UART_DisableFlowCtrl), (8 bytes).
    Removing uart.o(.text.UART_DisableInt), (20 bytes).
    Removing uart.o(.ARM.exidx.text.UART_DisableInt), (8 bytes).
    Removing uart.o(.text.UART_EnableFlowCtrl), (44 bytes).
    Removing uart.o(.ARM.exidx.text.UART_EnableFlowCtrl), (8 bytes).
    Removing uart.o(.text.UART_EnableInt), (20 bytes).
    Removing uart.o(.ARM.exidx.text.UART_EnableInt), (8 bytes).
    Removing uart.o(.ARM.exidx.text.UART_Open), (8 bytes).
    Removing uart.o(.text.UART_Read), (106 bytes).
    Removing uart.o(.ARM.exidx.text.UART_Read), (8 bytes).
    Removing uart.o(.text.UART_SetLineConfig), (592 bytes).
    Removing uart.o(.ARM.exidx.text.UART_SetLineConfig), (8 bytes).
    Removing uart.o(.text.UART_SetTimeoutCnt), (38 bytes).
    Removing uart.o(.ARM.exidx.text.UART_SetTimeoutCnt), (8 bytes).
    Removing uart.o(.text.UART_SelectIrDAMode), (596 bytes).
    Removing uart.o(.ARM.exidx.text.UART_SelectIrDAMode), (8 bytes).
    Removing uart.o(.text.UART_SelectRS485Mode), (48 bytes).
    Removing uart.o(.ARM.exidx.text.UART_SelectRS485Mode), (8 bytes).
    Removing uart.o(.text.UART_SelectLINMode), (42 bytes).
    Removing uart.o(.ARM.exidx.text.UART_SelectLINMode), (8 bytes).
    Removing uart.o(.text.UART_Write), (110 bytes).
    Removing uart.o(.ARM.exidx.text.UART_Write), (8 bytes).
    Removing uart.o(.text.UART_SelectSingleWireMode), (24 bytes).
    Removing uart.o(.ARM.exidx.text.UART_SelectSingleWireMode), (8 bytes).

147 unused section(s) (total 11008 bytes) removed from the image.

==============================================================================

Image Symbol Table

    Local Symbols

    Symbol Name                              Value     Ov Type        Size  Object(Section)

    ../../../../../Library/Device/Nuvoton/M2354/Source/ARM/startup_M2354.s 0x00000000   Number         0  startup_m2354.o ABSOLUTE
    ../clib/division.s                       0x00000000   Number         0  aeabi_sdiv.o ABSOLUTE
    ../clib/division.s                       0x00000000   Number         0  aeabi_sdiv_div0.o ABSOLUTE
    ../clib/microlib/division.c              0x00000000   Number         0  uidiv.o ABSOLUTE
    ../clib/microlib/division.c              0x00000000   Number         0  uldiv.o ABSOLUTE
    ../clib/microlib/division.c              0x00000000   Number         0  uidiv_div0.o ABSOLUTE
    ../clib/microlib/division.c              0x00000000   Number         0  idiv_div0.o ABSOLUTE
    ../clib/microlib/division.c              0x00000000   Number         0  idiv0.o ABSOLUTE
    ../clib/microlib/init/entry.s            0x00000000   Number         0  entry.o ABSOLUTE
    ../clib/microlib/init/entry.s            0x00000000   Number         0  entry2.o ABSOLUTE
    ../clib/microlib/init/entry.s            0x00000000   Number         0  entry5.o ABSOLUTE
    ../clib/microlib/init/entry.s            0x00000000   Number         0  entry7a.o ABSOLUTE
    ../clib/microlib/init/entry.s            0x00000000   Number         0  entry7b.o ABSOLUTE
    ../clib/microlib/init/entry.s            0x00000000   Number         0  entry8a.o ABSOLUTE
    ../clib/microlib/init/entry.s            0x00000000   Number         0  entry8b.o ABSOLUTE
    ../clib/microlib/init/entry.s            0x00000000   Number         0  entry9a.o ABSOLUTE
    ../clib/microlib/init/entry.s            0x00000000   Number         0  entry9b.o ABSOLUTE
    ../clib/microlib/init/entry.s            0x00000000   Number         0  entry10a.o ABSOLUTE
    ../clib/microlib/init/entry.s            0x00000000   Number         0  entry10b.o ABSOLUTE
    ../clib/microlib/init/entry.s            0x00000000   Number         0  entry11a.o ABSOLUTE
    ../clib/microlib/init/entry.s            0x00000000   Number         0  entry11b.o ABSOLUTE
    ../clib/microlib/longlong.c              0x00000000   Number         0  llshl.o ABSOLUTE
    ../clib/microlib/longlong.c              0x00000000   Number         0  llushr.o ABSOLUTE
    ../clib/microlib/longlong.c              0x00000000   Number         0  llsshr.o ABSOLUTE
    ../clib/microlib/printf/printf.c         0x00000000   Number         0  printfa.o ABSOLUTE
    ../clib/microlib/stdio/fputs.c           0x00000000   Number         0  fputs.o ABSOLUTE
    ../clib/microlib/stdio/fputs.c           0x00000000   Number         0  fputs_e.o ABSOLUTE
    ../clib/microlib/stdio/streams.c         0x00000000   Number         0  stderr.o ABSOLUTE
    ../clib/microlib/string/memcpy.c         0x00000000   Number         0  memcpya.o ABSOLUTE
    ../clib/microlib/string/memcpy.c         0x00000000   Number         0  memcpyb.o ABSOLUTE
    ../clib/microlib/stubs.s                 0x00000000   Number         0  iusefp.o ABSOLUTE
    ../fplib/microlib/fpadd.c                0x00000000   Number         0  dadd.o ABSOLUTE
    ../fplib/microlib/fpdiv.c                0x00000000   Number         0  ddiv.o ABSOLUTE
    ../fplib/microlib/fpepilogue.c           0x00000000   Number         0  depilogue.o ABSOLUTE
    ../fplib/microlib/fpfix.c                0x00000000   Number         0  dfixul.o ABSOLUTE
    ../fplib/microlib/fpmul.c                0x00000000   Number         0  dmul.o ABSOLUTE
    FwInfo.c                                 0x00000000   Number         0  fwinfo.o ABSOLUTE
    cdrcmple.s                               0x00000000   Number         0  cdrcmple.o ABSOLUTE
    clk.c                                    0x00000000   Number         0  clk.o ABSOLUTE
    handlers.s                               0x00000000   Number         0  handlers.o ABSOLUTE
    init.s                                   0x00000000   Number         0  init.o ABSOLUTE
    main.c                                   0x00000000   Number         0  main.o ABSOLUTE
    retarget.c                               0x00000000   Number         0  retarget.o ABSOLUTE
    sys.c                                    0x00000000   Number         0  sys.o ABSOLUTE
    system_M2354.c                           0x00000000   Number         0  system_m2354.o ABSOLUTE
    uart.c                                   0x00000000   Number         0  uart.o ABSOLUTE
    RESET                                    0x00020000   Section      528  startup_m2354.o(RESET)
    .ARM.Collect$$$$00000000                 0x00020210   Section        0  entry.o(.ARM.Collect$$$$00000000)
    .ARM.Collect$$$$00000001                 0x00020210   Section        4  entry2.o(.ARM.Collect$$$$00000001)
    .ARM.Collect$$$$00000004                 0x00020214   Section        4  entry5.o(.ARM.Collect$$$$00000004)
    .ARM.Collect$$$$00000008                 0x00020218   Section        0  entry7b.o(.ARM.Collect$$$$00000008)
    .ARM.Collect$$$$0000000A                 0x00020218   Section        0  entry8b.o(.ARM.Collect$$$$0000000A)
    .ARM.Collect$$$$0000000B                 0x00020218   Section        8  entry9a.o(.ARM.Collect$$$$0000000B)
    __lit__00000000                          0x00020220   Data           4  entry2.o(.ARM.Collect$$$$00002712)
    .ARM.Collect$$$$0000000D                 0x00020220   Section        0  entry10a.o(.ARM.Collect$$$$0000000D)
    .ARM.Collect$$$$0000000F                 0x00020220   Section        0  entry11a.o(.ARM.Collect$$$$0000000F)
    .ARM.Collect$$$$00002712                 0x00020220   Section        4  entry2.o(.ARM.Collect$$$$00002712)
    .text                                    0x00020224   Section      120  startup_m2354.o(.text)
    SPD_Next                                 0x00020277   Thumb Code     0  startup_m2354.o(.text)
    .text                                    0x0002029c   Section        0  memcpya.o(.text)
    .text                                    0x000202c0   Section        0  uldiv.o(.text)
    .text                                    0x00020320   Section        0  iusefp.o(.text)
    .text                                    0x00020320   Section        0  dadd.o(.text)
    .text                                    0x00020484   Section        0  dmul.o(.text)
    .text                                    0x00020554   Section        0  ddiv.o(.text)
    .text                                    0x00020644   Section        0  dfixul.o(.text)
    .text                                    0x00020684   Section       40  cdrcmple.o(.text)
    .text                                    0x000206ac   Section       36  init.o(.text)
    .text                                    0x000206d0   Section        0  uidiv_div0.o(.text)
    .text                                    0x0002070e   Section        0  llshl.o(.text)
    .text                                    0x0002072e   Section        0  llushr.o(.text)
    .text                                    0x00020750   Section        0  llsshr.o(.text)
    .text                                    0x00020776   Section        0  depilogue.o(.text)
    [Anonymous Symbol]                       0x00020834   Section        0  clk.o(.text.CLK_EnableModuleClock)
    __arm_cp.18_0                            0x00020868   Number         4  clk.o(.text.CLK_EnableModuleClock)
    [Anonymous Symbol]                       0x0002086c   Section        0  clk.o(.text.CLK_EnablePLL)
    __arm_cp.12_3                            0x00020a1c   Number         4  clk.o(.text.CLK_EnablePLL)
    __arm_cp.12_4                            0x00020a20   Number         4  clk.o(.text.CLK_EnablePLL)
    __arm_cp.12_5                            0x00020a24   Number         4  clk.o(.text.CLK_EnablePLL)
    __arm_cp.12_6                            0x00020a28   Number         4  clk.o(.text.CLK_EnablePLL)
    __arm_cp.12_7                            0x00020a2c   Number         4  clk.o(.text.CLK_EnablePLL)
    __arm_cp.12_8                            0x00020a30   Number         4  clk.o(.text.CLK_EnablePLL)
    __arm_cp.12_9                            0x00020a34   Number         4  clk.o(.text.CLK_EnablePLL)
    __arm_cp.12_10                           0x00020a38   Number         4  clk.o(.text.CLK_EnablePLL)
    __arm_cp.12_11                           0x00020a3c   Number         4  clk.o(.text.CLK_EnablePLL)
    __arm_cp.12_12                           0x00020a40   Number         4  clk.o(.text.CLK_EnablePLL)
    [Anonymous Symbol]                       0x00020a44   Section        0  clk.o(.text.CLK_EnableXtalRC)
    [Anonymous Symbol]                       0x00020a58   Section        0  clk.o(.text.CLK_GetCPUFreq)
    __arm_cp.9_0                             0x00020bb0   Number         4  clk.o(.text.CLK_GetCPUFreq)
    __arm_cp.9_1                             0x00020bb4   Number         4  clk.o(.text.CLK_GetCPUFreq)
    __arm_cp.9_3                             0x00020bb8   Number         4  clk.o(.text.CLK_GetCPUFreq)
    __arm_cp.9_5                             0x00020bbc   Number         4  clk.o(.text.CLK_GetCPUFreq)
    __arm_cp.9_6                             0x00020bc0   Number         4  clk.o(.text.CLK_GetCPUFreq)
    __arm_cp.9_11                            0x00020bc4   Number         4  clk.o(.text.CLK_GetCPUFreq)
    __arm_cp.9_12                            0x00020bc8   Number         4  clk.o(.text.CLK_GetCPUFreq)
    __arm_cp.9_13                            0x00020bcc   Number         4  clk.o(.text.CLK_GetCPUFreq)
    [Anonymous Symbol]                       0x00020bd0   Section        0  clk.o(.text.CLK_GetHCLKFreq)
    [Anonymous Symbol]                       0x00020bf0   Section        0  clk.o(.text.CLK_GetHXTFreq)
    __arm_cp.4_0                             0x00020c24   Number         4  clk.o(.text.CLK_GetHXTFreq)
    __arm_cp.4_1                             0x00020c28   Number         4  clk.o(.text.CLK_GetHXTFreq)
    [Anonymous Symbol]                       0x00020c2c   Section        0  clk.o(.text.CLK_GetLXTFreq)
    __arm_cp.5_0                             0x00020c64   Number         4  clk.o(.text.CLK_GetLXTFreq)
    [Anonymous Symbol]                       0x00020c68   Section        0  clk.o(.text.CLK_GetModuleClockDivider)
    __arm_cp.29_0                            0x00020cc8   Number         4  clk.o(.text.CLK_GetModuleClockDivider)
    [Anonymous Symbol]                       0x00020ccc   Section        0  clk.o(.text.CLK_GetModuleClockSource)
    __arm_cp.28_0                            0x00020ddc   Number         4  clk.o(.text.CLK_GetModuleClockSource)
    __arm_cp.28_1                            0x00020de0   Number         4  clk.o(.text.CLK_GetModuleClockSource)
    __arm_cp.28_2                            0x00020de4   Number         4  clk.o(.text.CLK_GetModuleClockSource)
    __arm_cp.28_3                            0x00020de8   Number         4  clk.o(.text.CLK_GetModuleClockSource)
    __arm_cp.28_4                            0x00020dec   Number         4  clk.o(.text.CLK_GetModuleClockSource)
    __arm_cp.28_5                            0x00020df0   Number         4  clk.o(.text.CLK_GetModuleClockSource)
    __arm_cp.28_6                            0x00020df4   Number         4  clk.o(.text.CLK_GetModuleClockSource)
    __arm_cp.28_7                            0x00020df8   Number         4  clk.o(.text.CLK_GetModuleClockSource)
    __arm_cp.28_8                            0x00020dfc   Number         4  clk.o(.text.CLK_GetModuleClockSource)
    [Anonymous Symbol]                       0x00020e00   Section        0  clk.o(.text.CLK_GetPCLK0Freq)
    [Anonymous Symbol]                       0x00020e20   Section        0  clk.o(.text.CLK_GetPCLK1Freq)
    __arm_cp.8_0                             0x00020e40   Number         4  clk.o(.text.CLK_GetPCLK1Freq)
    [Anonymous Symbol]                       0x00020e44   Section        0  clk.o(.text.CLK_GetPLLClockFreq)
    __arm_cp.27_0                            0x00020ee4   Number         4  clk.o(.text.CLK_GetPLLClockFreq)
    __arm_cp.27_1                            0x00020ee8   Number         4  clk.o(.text.CLK_GetPLLClockFreq)
    __arm_cp.27_2                            0x00020eec   Number         4  clk.o(.text.CLK_GetPLLClockFreq)
    __arm_cp.27_3                            0x00020ef0   Number         4  clk.o(.text.CLK_GetPLLClockFreq)
    [Anonymous Symbol]                       0x00020ef4   Section        0  clk.o(.text.CLK_SetCoreClock)
    __arm_cp.10_1                            0x00020f98   Number         4  clk.o(.text.CLK_SetCoreClock)
    __arm_cp.10_2                            0x00020f9c   Number         4  clk.o(.text.CLK_SetCoreClock)
    __arm_cp.10_3                            0x00020fa0   Number         4  clk.o(.text.CLK_SetCoreClock)
    __arm_cp.10_4                            0x00020fa4   Number         4  clk.o(.text.CLK_SetCoreClock)
    __arm_cp.10_5                            0x00020fa8   Number         4  clk.o(.text.CLK_SetCoreClock)
    __arm_cp.10_7                            0x00020fac   Number         4  clk.o(.text.CLK_SetCoreClock)
    [Anonymous Symbol]                       0x00020fb0   Section        0  clk.o(.text.CLK_SetHCLK)
    __arm_cp.13_0                            0x00021184   Number         4  clk.o(.text.CLK_SetHCLK)
    __arm_cp.13_1                            0x00021188   Number         4  clk.o(.text.CLK_SetHCLK)
    __arm_cp.13_2                            0x0002118c   Number         4  clk.o(.text.CLK_SetHCLK)
    __arm_cp.13_3                            0x00021190   Number         4  clk.o(.text.CLK_SetHCLK)
    __arm_cp.13_4                            0x00021194   Number         4  clk.o(.text.CLK_SetHCLK)
    __arm_cp.13_5                            0x00021198   Number         4  clk.o(.text.CLK_SetHCLK)
    __arm_cp.13_6                            0x0002119c   Number         4  clk.o(.text.CLK_SetHCLK)
    __arm_cp.13_8                            0x000211a0   Number         4  clk.o(.text.CLK_SetHCLK)
    __arm_cp.13_9                            0x000211a4   Number         4  clk.o(.text.CLK_SetHCLK)
    __arm_cp.13_10                           0x000211a8   Number         4  clk.o(.text.CLK_SetHCLK)
    __arm_cp.13_11                           0x000211ac   Number         4  clk.o(.text.CLK_SetHCLK)
    __arm_cp.13_12                           0x000211b0   Number         4  clk.o(.text.CLK_SetHCLK)
    __arm_cp.13_13                           0x000211b4   Number         4  clk.o(.text.CLK_SetHCLK)
    __arm_cp.13_14                           0x000211b8   Number         4  clk.o(.text.CLK_SetHCLK)
    __arm_cp.13_15                           0x000211bc   Number         4  clk.o(.text.CLK_SetHCLK)
    __arm_cp.13_16                           0x000211c0   Number         4  clk.o(.text.CLK_SetHCLK)
    __arm_cp.13_17                           0x000211c4   Number         4  clk.o(.text.CLK_SetHCLK)
    [Anonymous Symbol]                       0x000211c8   Section        0  clk.o(.text.CLK_SetModuleClock)
    __arm_cp.14_0                            0x000212ac   Number         4  clk.o(.text.CLK_SetModuleClock)
    __arm_cp.14_1                            0x000212b0   Number         4  clk.o(.text.CLK_SetModuleClock)
    __arm_cp.14_2                            0x000212b4   Number         4  clk.o(.text.CLK_SetModuleClock)
    __arm_cp.14_3                            0x000212b8   Number         4  clk.o(.text.CLK_SetModuleClock)
    __arm_cp.14_4                            0x000212bc   Number         4  clk.o(.text.CLK_SetModuleClock)
    [Anonymous Symbol]                       0x000212c0   Section        0  clk.o(.text.CLK_WaitClockReady)
    __arm_cp.11_0                            0x000212f8   Number         4  clk.o(.text.CLK_WaitClockReady)
    __arm_cp.11_1                            0x000212fc   Number         4  clk.o(.text.CLK_WaitClockReady)
    [Anonymous Symbol]                       0x00021300   Section        0  system_m2354.o(.text.FMC_NSBA_Setup)
    __arm_cp.0_0                             0x00021384   Number         4  system_m2354.o(.text.FMC_NSBA_Setup)
    __arm_cp.0_1                             0x00021388   Number         4  system_m2354.o(.text.FMC_NSBA_Setup)
    __arm_cp.0_2                             0x0002138c   Number         4  system_m2354.o(.text.FMC_NSBA_Setup)
    __arm_cp.0_3                             0x00021390   Number         4  system_m2354.o(.text.FMC_NSBA_Setup)
    __arm_cp.0_4                             0x00021394   Number         4  system_m2354.o(.text.FMC_NSBA_Setup)
    __arm_cp.0_5                             0x00021398   Number         4  system_m2354.o(.text.FMC_NSBA_Setup)
    __arm_cp.0_6                             0x0002139c   Number         4  system_m2354.o(.text.FMC_NSBA_Setup)
    __arm_cp.0_7                             0x000213a0   Number         4  system_m2354.o(.text.FMC_NSBA_Setup)
    [Anonymous Symbol]                       0x000213a4   Section        0  system_m2354.o(.text.NSC_Init)
    __arm_cp.5_0                             0x000213d4   Number         4  system_m2354.o(.text.NSC_Init)
    __arm_cp.5_1                             0x000213d8   Number         4  system_m2354.o(.text.NSC_Init)
    __arm_cp.5_2                             0x000213dc   Number         4  system_m2354.o(.text.NSC_Init)
    __arm_cp.5_3                             0x000213e0   Number         4  system_m2354.o(.text.NSC_Init)
    __arm_cp.5_4                             0x000213e4   Number         4  system_m2354.o(.text.NSC_Init)
    [Anonymous Symbol]                       0x000213e8   Section        0  retarget.o(.text.ProcessHardFault)
    __arm_cp.2_0                             0x00021718   Number         4  retarget.o(.text.ProcessHardFault)
    __arm_cp.2_1                             0x0002171c   Number         4  retarget.o(.text.ProcessHardFault)
    __arm_cp.2_2                             0x00021720   Number         4  retarget.o(.text.ProcessHardFault)
    __arm_cp.2_3                             0x00021724   Number         4  retarget.o(.text.ProcessHardFault)
    __arm_cp.2_4                             0x00021728   Number         4  retarget.o(.text.ProcessHardFault)
    __arm_cp.2_5                             0x0002172c   Number         4  retarget.o(.text.ProcessHardFault)
    __arm_cp.2_6                             0x00021730   Number         4  retarget.o(.text.ProcessHardFault)
    __arm_cp.2_7                             0x00021734   Number         4  retarget.o(.text.ProcessHardFault)
    __arm_cp.2_8                             0x00021738   Number         4  retarget.o(.text.ProcessHardFault)
    __arm_cp.2_9                             0x0002173c   Number         4  retarget.o(.text.ProcessHardFault)
    __arm_cp.2_10                            0x00021740   Number         4  retarget.o(.text.ProcessHardFault)
    __arm_cp.2_11                            0x00021744   Number         4  retarget.o(.text.ProcessHardFault)
    __arm_cp.2_12                            0x00021748   Number         4  retarget.o(.text.ProcessHardFault)
    __arm_cp.2_13                            0x0002174c   Number         4  retarget.o(.text.ProcessHardFault)
    __arm_cp.2_15                            0x00021750   Number         4  retarget.o(.text.ProcessHardFault)
    __arm_cp.2_16                            0x00021754   Number         4  retarget.o(.text.ProcessHardFault)
    __arm_cp.2_17                            0x00021758   Number         4  retarget.o(.text.ProcessHardFault)
    __arm_cp.2_19                            0x0002175c   Number         4  retarget.o(.text.ProcessHardFault)
    __arm_cp.2_21                            0x00021760   Number         4  retarget.o(.text.ProcessHardFault)
    [Anonymous Symbol]                       0x00021764   Section        0  system_m2354.o(.text.SCU_IRQHandler)
    __arm_cp.4_0                             0x00021844   Number         4  system_m2354.o(.text.SCU_IRQHandler)
    __arm_cp.4_1                             0x00021848   Number         4  system_m2354.o(.text.SCU_IRQHandler)
    __arm_cp.4_2                             0x0002184c   Number         4  system_m2354.o(.text.SCU_IRQHandler)
    __arm_cp.4_3                             0x00021850   Number         4  system_m2354.o(.text.SCU_IRQHandler)
    __arm_cp.4_6                             0x00021854   Number         4  system_m2354.o(.text.SCU_IRQHandler)
    __arm_cp.4_7                             0x00021858   Number         4  system_m2354.o(.text.SCU_IRQHandler)
    __arm_cp.4_8                             0x0002185c   Number         4  system_m2354.o(.text.SCU_IRQHandler)
    [Anonymous Symbol]                       0x00021860   Section        0  system_m2354.o(.text.SCU_Setup)
    __arm_cp.2_0                             0x000218f0   Number         4  system_m2354.o(.text.SCU_Setup)
    __arm_cp.2_1                             0x000218f4   Number         4  system_m2354.o(.text.SCU_Setup)
    __arm_cp.2_2                             0x000218f8   Number         4  system_m2354.o(.text.SCU_Setup)
    __arm_cp.2_3                             0x000218fc   Number         4  system_m2354.o(.text.SCU_Setup)
    __arm_cp.2_4                             0x00021900   Number         4  system_m2354.o(.text.SCU_Setup)
    __arm_cp.2_5                             0x00021904   Number         4  system_m2354.o(.text.SCU_Setup)
    __arm_cp.2_6                             0x00021908   Number         4  system_m2354.o(.text.SCU_Setup)
    __arm_cp.2_7                             0x0002190c   Number         4  system_m2354.o(.text.SCU_Setup)
    __arm_cp.2_8                             0x00021910   Number         4  system_m2354.o(.text.SCU_Setup)
    __arm_cp.2_9                             0x00021914   Number         4  system_m2354.o(.text.SCU_Setup)
    __arm_cp.2_10                            0x00021918   Number         4  system_m2354.o(.text.SCU_Setup)
    __arm_cp.2_11                            0x0002191c   Number         4  system_m2354.o(.text.SCU_Setup)
    __arm_cp.2_12                            0x00021920   Number         4  system_m2354.o(.text.SCU_Setup)
    __arm_cp.2_13                            0x00021924   Number         4  system_m2354.o(.text.SCU_Setup)
    __arm_cp.2_14                            0x00021928   Number         4  system_m2354.o(.text.SCU_Setup)
    __arm_cp.2_15                            0x0002192c   Number         4  system_m2354.o(.text.SCU_Setup)
    __arm_cp.2_16                            0x00021930   Number         4  system_m2354.o(.text.SCU_Setup)
    __arm_cp.2_17                            0x00021934   Number         4  system_m2354.o(.text.SCU_Setup)
    __arm_cp.2_18                            0x00021938   Number         4  system_m2354.o(.text.SCU_Setup)
    [Anonymous Symbol]                       0x0002193c   Section        0  retarget.o(.text.SH_Return)
    [Anonymous Symbol]                       0x0002194c   Section        0  main.o(.text.SYS_Init)
    __arm_cp.0_0                             0x0002198c   Number         4  main.o(.text.SYS_Init)
    __arm_cp.0_1                             0x00021990   Number         4  main.o(.text.SYS_Init)
    __arm_cp.0_2                             0x00021994   Number         4  main.o(.text.SYS_Init)
    [Anonymous Symbol]                       0x00021998   Section        0  sys.o(.text.SYS_ResetModule)
    __arm_cp.7_0                             0x000219e0   Number         4  sys.o(.text.SYS_ResetModule)
    __arm_cp.7_1                             0x000219e4   Number         4  sys.o(.text.SYS_ResetModule)
    SYS_UnlockReg                            0x000219e9   Thumb Code    52  system_m2354.o(.text.SYS_UnlockReg)
    [Anonymous Symbol]                       0x000219e8   Section        0  system_m2354.o(.text.SYS_UnlockReg)
    SYS_UnlockReg                            0x00021a1d   Thumb Code    52  main.o(.text.SYS_UnlockReg)
    [Anonymous Symbol]                       0x00021a1c   Section        0  main.o(.text.SYS_UnlockReg)
    __arm_cp.3_0                             0x00021a50   Number         4  main.o(.text.SYS_UnlockReg)
    [Anonymous Symbol]                       0x00021a54   Section        0  retarget.o(.text.SendChar)
    [Anonymous Symbol]                       0x00021a64   Section        0  retarget.o(.text.SendChar_ToUART)
    __arm_cp.4_0                             0x00021aa4   Number         4  retarget.o(.text.SendChar_ToUART)
    [Anonymous Symbol]                       0x00021aa8   Section        0  system_m2354.o(.text.SystemCoreClockUpdate)
    __arm_cp.7_0                             0x00021ad0   Number         4  system_m2354.o(.text.SystemCoreClockUpdate)
    __arm_cp.7_1                             0x00021ad4   Number         4  system_m2354.o(.text.SystemCoreClockUpdate)
    __arm_cp.7_2                             0x00021ad8   Number         4  system_m2354.o(.text.SystemCoreClockUpdate)
    __arm_cp.7_3                             0x00021adc   Number         4  system_m2354.o(.text.SystemCoreClockUpdate)
    __arm_cp.7_4                             0x00021ae0   Number         4  system_m2354.o(.text.SystemCoreClockUpdate)
    [Anonymous Symbol]                       0x00021ae4   Section        0  system_m2354.o(.text.SystemInit)
    __arm_cp.8_0                             0x00021b38   Number         4  system_m2354.o(.text.SystemInit)
    __arm_cp.8_1                             0x00021b3c   Number         4  system_m2354.o(.text.SystemInit)
    __arm_cp.8_2                             0x00021b40   Number         4  system_m2354.o(.text.SystemInit)
    __arm_cp.8_3                             0x00021b44   Number         4  system_m2354.o(.text.SystemInit)
    __arm_cp.8_4                             0x00021b48   Number         4  system_m2354.o(.text.SystemInit)
    __arm_cp.8_5                             0x00021b4c   Number         4  system_m2354.o(.text.SystemInit)
    [Anonymous Symbol]                       0x00021b50   Section        0  system_m2354.o(.text.TZ_SAU_Setup)
    __arm_cp.6_0                             0x00021b9c   Number         4  system_m2354.o(.text.TZ_SAU_Setup)
    __arm_cp.6_1                             0x00021ba0   Number         4  system_m2354.o(.text.TZ_SAU_Setup)
    __arm_cp.6_2                             0x00021ba4   Number         4  system_m2354.o(.text.TZ_SAU_Setup)
    __arm_cp.6_3                             0x00021ba8   Number         4  system_m2354.o(.text.TZ_SAU_Setup)
    __arm_cp.6_4                             0x00021bac   Number         4  system_m2354.o(.text.TZ_SAU_Setup)
    __arm_cp.6_5                             0x00021bb0   Number         4  system_m2354.o(.text.TZ_SAU_Setup)
    __arm_cp.6_6                             0x00021bb4   Number         4  system_m2354.o(.text.TZ_SAU_Setup)
    __arm_cp.6_7                             0x00021bb8   Number         4  system_m2354.o(.text.TZ_SAU_Setup)
    __arm_cp.6_8                             0x00021bbc   Number         4  system_m2354.o(.text.TZ_SAU_Setup)
    __arm_cp.6_9                             0x00021bc0   Number         4  system_m2354.o(.text.TZ_SAU_Setup)
    __arm_cp.6_10                            0x00021bc4   Number         4  system_m2354.o(.text.TZ_SAU_Setup)
    __arm_cp.6_11                            0x00021bc8   Number         4  system_m2354.o(.text.TZ_SAU_Setup)
    [Anonymous Symbol]                       0x00021bcc   Section        0  main.o(.text.UART_Init)
    __arm_cp.1_0                             0x00021be0   Number         4  main.o(.text.UART_Init)
    [Anonymous Symbol]                       0x00021be4   Section        0  uart.o(.text.UART_Open)
    __arm_cp.6_0                             0x00021dec   Number         4  uart.o(.text.UART_Open)
    __arm_cp.6_1                             0x00021df0   Number         4  uart.o(.text.UART_Open)
    __arm_cp.6_2                             0x00021df4   Number         4  uart.o(.text.UART_Open)
    __arm_cp.6_3                             0x00021df8   Number         4  uart.o(.text.UART_Open)
    __arm_cp.6_4                             0x00021dfc   Number         4  uart.o(.text.UART_Open)
    __arm_cp.6_5                             0x00021e00   Number         4  uart.o(.text.UART_Open)
    __arm_cp.6_6                             0x00021e04   Number         4  uart.o(.text.UART_Open)
    __arm_cp.6_7                             0x00021e08   Number         4  uart.o(.text.UART_Open)
    __arm_cp.6_8                             0x00021e0c   Number         4  uart.o(.text.UART_Open)
    __arm_cp.6_9                             0x00021e10   Number         4  uart.o(.text.UART_Open)
    __arm_cp.6_10                            0x00021e14   Number         4  uart.o(.text.UART_Open)
    __arm_cp.6_11                            0x00021e18   Number         4  uart.o(.text.UART_Open)
    __arm_cp.6_12                            0x00021e1c   Number         4  uart.o(.text.UART_Open)
    __arm_cp.6_13                            0x00021e20   Number         4  uart.o(.text.UART_Open)
    __arm_cp.6_14                            0x00021e24   Number         4  uart.o(.text.UART_Open)
    __arm_cp.6_15                            0x00021e28   Number         4  uart.o(.text.UART_Open)
    __arm_cp.6_16                            0x00021e2c   Number         4  uart.o(.text.UART_Open)
    __arm_cp.6_17                            0x00021e30   Number         4  uart.o(.text.UART_Open)
    __arm_cp.6_18                            0x00021e34   Number         4  uart.o(.text.UART_Open)
    __arm_cp.6_19                            0x00021e38   Number         4  uart.o(.text.UART_Open)
    __NVIC_EnableIRQ                         0x00021e3d   Thumb Code    40  system_m2354.o(.text.__NVIC_EnableIRQ)
    [Anonymous Symbol]                       0x00021e3c   Section        0  system_m2354.o(.text.__NVIC_EnableIRQ)
    __arm_cp.3_0                             0x00021e64   Number         4  system_m2354.o(.text.__NVIC_EnableIRQ)
    [Anonymous Symbol]                       0x00021e68   Section        0  retarget.o(.text.fputc)
    [Anonymous Symbol]                       0x00021e7c   Section        0  main.o(.text.main)
    __arm_cp.2_0                             0x00021eb8   Number         4  main.o(.text.main)
    __arm_cp.2_1                             0x00021ebc   Number         4  main.o(.text.main)
    __arm_cp.2_2                             0x00021ec0   Number         4  main.o(.text.main)
    __arm_cp.2_3                             0x00021ec4   Number         4  main.o(.text.main)
    __arm_cp.2_4                             0x00021ec8   Number         4  main.o(.text.main)
    __arm_cp.2_5                             0x00021ecc   Number         4  main.o(.text.main)
    i.__0printf                              0x00021ed0   Section        0  printfa.o(i.__0printf)
    i.__ARM_clz                              0x00021ef0   Section        0  depilogue.o(i.__ARM_clz)
    i.__scatterload_copy                     0x00021f1e   Section       14  handlers.o(i.__scatterload_copy)
    i.__scatterload_null                     0x00021f2c   Section        2  handlers.o(i.__scatterload_null)
    i.__scatterload_zeroinit                 0x00021f2e   Section       14  handlers.o(i.__scatterload_zeroinit)
    _fp_digits                               0x00021f3d   Thumb Code   344  printfa.o(i._fp_digits)
    i._fp_digits                             0x00021f3c   Section        0  printfa.o(i._fp_digits)
    _printf_core                             0x000220b1   Thumb Code  1754  printfa.o(i._printf_core)
    i._printf_core                           0x000220b0   Section        0  printfa.o(i._printf_core)
    _printf_post_padding                     0x0002279d   Thumb Code    32  printfa.o(i._printf_post_padding)
    i._printf_post_padding                   0x0002279c   Section        0  printfa.o(i._printf_post_padding)
    _printf_pre_padding                      0x000227bd   Thumb Code    44  printfa.o(i._printf_pre_padding)
    i._printf_pre_padding                    0x000227bc   Section        0  printfa.o(i._printf_pre_padding)
    [Anonymous Symbol]                       0x000227e8   Section        0  retarget.o(.rodata..L__const.ProcessHardFault.info)
    [Anonymous Symbol]                       0x00022800   Section        0  retarget.o(.rodata..L__const.ProcessHardFault.ipname)
    [Anonymous Symbol]                       0x00022854   Section        0  retarget.o(.rodata..L__const.ProcessHardFault.master)
    [Anonymous Symbol]                       0x00022884   Section        0  system_m2354.o(.rodata..L__const.SCU_IRQHandler.info)
    [Anonymous Symbol]                       0x0002289c   Section        0  system_m2354.o(.rodata..L__const.SCU_IRQHandler.ipname)
    [Anonymous Symbol]                       0x000228f0   Section        0  system_m2354.o(.rodata..L__const.SCU_IRQHandler.master)
    [Anonymous Symbol]                       0x00022920   Section        0  clk.o(.rodata.cst32)
    [Anonymous Symbol]                       0x00022940   Section        0  uart.o(.rodata.cst32)
    [Anonymous Symbol]                       0x000229a0   Section        0  system_m2354.o(.rodata.str1.1)
    [Anonymous Symbol]                       0x00022a52   Section        0  main.o(.rodata.str1.1)
    [Anonymous Symbol]                       0x00022b10   Section        0  retarget.o(.rodata.str1.1)
    Stack_Mem                                0x20000010   Data        6144  startup_m2354.o(.STACK)
    .STACK                                   0x20000010   Section     6144  startup_m2354.o(.STACK)

    Global Symbols

    Symbol Name                              Value     Ov Type        Size  Object(Section)

    BuildAttributes$$THM_ISAv3M$S$8M$PE$A:L22$X:L11$S22$IEEE1$IW$~IW$USESV6$~STKCKD$USESV7$WCHAR32$ENUMINT$~SHL$OSPACE$ROPI$EBA8$MICROLIB$REQ8$PRES8$EABIv2 0x00000000   Number         0  anon$$obj.o ABSOLUTE
    __cpp_initialize__aeabi_                  - Undefined Weak Reference
    __cxa_finalize                            - Undefined Weak Reference
    __decompress                              - Undefined Weak Reference
    _clock_init                               - Undefined Weak Reference
    _microlib_exit                            - Undefined Weak Reference
    __Vectors_Size                           0x00000210   Number         0  startup_m2354.o ABSOLUTE
    __Vectors                                0x00020000   Data           4  startup_m2354.o(RESET)
    __Vectors_End                            0x00020210   Data           0  startup_m2354.o(RESET)
    __main                                   0x00020211   Thumb Code     0  entry.o(.ARM.Collect$$$$00000000)
    _main_stk                                0x00020211   Thumb Code     0  entry2.o(.ARM.Collect$$$$00000001)
    _main_scatterload                        0x00020215   Thumb Code     0  entry5.o(.ARM.Collect$$$$00000004)
    __main_after_scatterload                 0x00020219   Thumb Code     0  entry5.o(.ARM.Collect$$$$00000004)
    _main_clock                              0x00020219   Thumb Code     0  entry7b.o(.ARM.Collect$$$$00000008)
    _main_cpp_init                           0x00020219   Thumb Code     0  entry8b.o(.ARM.Collect$$$$0000000A)
    _main_init                               0x00020219   Thumb Code     0  entry9a.o(.ARM.Collect$$$$0000000B)
    __rt_final_cpp                           0x00020221   Thumb Code     0  entry10a.o(.ARM.Collect$$$$0000000D)
    __rt_final_exit                          0x00020221   Thumb Code     0  entry11a.o(.ARM.Collect$$$$0000000F)
    Reset_Handler                            0x00020225   Thumb Code    14  startup_m2354.o(.text)
    NMI_Handler                              0x00020233   Thumb Code     2  startup_m2354.o(.text)
    HardFault_Handler                        0x00020235   Thumb Code    20  startup_m2354.o(.text)
    ProcessHardFaultx                        0x00020249   Thumb Code     2  startup_m2354.o(.text)
    SVC_Handler                              0x0002024b   Thumb Code     2  startup_m2354.o(.text)
    PendSV_Handler                           0x0002024d   Thumb Code     2  startup_m2354.o(.text)
    SysTick_Handler                          0x0002024f   Thumb Code     2  startup_m2354.o(.text)
    ACMP01_IRQHandler                        0x00020251   Thumb Code     0  startup_m2354.o(.text)
    BOD_IRQHandler                           0x00020251   Thumb Code     0  startup_m2354.o(.text)
    BPWM0_IRQHandler                         0x00020251   Thumb Code     0  startup_m2354.o(.text)
    BPWM1_IRQHandler                         0x00020251   Thumb Code     0  startup_m2354.o(.text)
    BRAKE0_IRQHandler                        0x00020251   Thumb Code     0  startup_m2354.o(.text)
    BRAKE1_IRQHandler                        0x00020251   Thumb Code     0  startup_m2354.o(.text)
    CAN0_IRQHandler                          0x00020251   Thumb Code     0  startup_m2354.o(.text)
    CAN1_IRQHandler                          0x00020251   Thumb Code     0  startup_m2354.o(.text)
    CLKFAIL_IRQHandler                       0x00020251   Thumb Code     0  startup_m2354.o(.text)
    CRPT_IRQHandler                          0x00020251   Thumb Code     0  startup_m2354.o(.text)
    DAC_IRQHandler                           0x00020251   Thumb Code     0  startup_m2354.o(.text)
    DEFAULT_IRQHandler                       0x00020251   Thumb Code     0  startup_m2354.o(.text)
    EADC0_IRQHandler                         0x00020251   Thumb Code     0  startup_m2354.o(.text)
    EADC1_IRQHandler                         0x00020251   Thumb Code     0  startup_m2354.o(.text)
    EADC2_IRQHandler                         0x00020251   Thumb Code     0  startup_m2354.o(.text)
    EADC3_IRQHandler                         0x00020251   Thumb Code     0  startup_m2354.o(.text)
    ECAP0_IRQHandler                         0x00020251   Thumb Code     0  startup_m2354.o(.text)
    ECAP1_IRQHandler                         0x00020251   Thumb Code     0  startup_m2354.o(.text)
    EINT0_IRQHandler                         0x00020251   Thumb Code     0  startup_m2354.o(.text)
    EINT1_IRQHandler                         0x00020251   Thumb Code     0  startup_m2354.o(.text)
    EINT2_IRQHandler                         0x00020251   Thumb Code     0  startup_m2354.o(.text)
    EINT3_IRQHandler                         0x00020251   Thumb Code     0  startup_m2354.o(.text)
    EINT4_IRQHandler                         0x00020251   Thumb Code     0  startup_m2354.o(.text)
    EINT5_IRQHandler                         0x00020251   Thumb Code     0  startup_m2354.o(.text)
    EINT6_IRQHandler                         0x00020251   Thumb Code     0  startup_m2354.o(.text)
    EINT7_IRQHandler                         0x00020251   Thumb Code     0  startup_m2354.o(.text)
    EPWM0_P0_IRQHandler                      0x00020251   Thumb Code     0  startup_m2354.o(.text)
    EPWM0_P1_IRQHandler                      0x00020251   Thumb Code     0  startup_m2354.o(.text)
    EPWM0_P2_IRQHandler                      0x00020251   Thumb Code     0  startup_m2354.o(.text)
    EPWM1_P0_IRQHandler                      0x00020251   Thumb Code     0  startup_m2354.o(.text)
    EPWM1_P1_IRQHandler                      0x00020251   Thumb Code     0  startup_m2354.o(.text)
    EPWM1_P2_IRQHandler                      0x00020251   Thumb Code     0  startup_m2354.o(.text)
    EWDT_IRQHandler                          0x00020251   Thumb Code     0  startup_m2354.o(.text)
    EWWDT_IRQHandler                         0x00020251   Thumb Code     0  startup_m2354.o(.text)
    GPA_IRQHandler                           0x00020251   Thumb Code     0  startup_m2354.o(.text)
    GPB_IRQHandler                           0x00020251   Thumb Code     0  startup_m2354.o(.text)
    GPC_IRQHandler                           0x00020251   Thumb Code     0  startup_m2354.o(.text)
    GPD_IRQHandler                           0x00020251   Thumb Code     0  startup_m2354.o(.text)
    GPE_IRQHandler                           0x00020251   Thumb Code     0  startup_m2354.o(.text)
    GPF_IRQHandler                           0x00020251   Thumb Code     0  startup_m2354.o(.text)
    GPG_IRQHandler                           0x00020251   Thumb Code     0  startup_m2354.o(.text)
    GPH_IRQHandler                           0x00020251   Thumb Code     0  startup_m2354.o(.text)
    I2C0_IRQHandler                          0x00020251   Thumb Code     0  startup_m2354.o(.text)
    I2C1_IRQHandler                          0x00020251   Thumb Code     0  startup_m2354.o(.text)
    I2C2_IRQHandler                          0x00020251   Thumb Code     0  startup_m2354.o(.text)
    I2S0_IRQHandler                          0x00020251   Thumb Code     0  startup_m2354.o(.text)
    IRC_IRQHandler                           0x00020251   Thumb Code     0  startup_m2354.o(.text)
    KS_IRQHandler                            0x00020251   Thumb Code     0  startup_m2354.o(.text)
    LCD_IRQHandler                           0x00020251   Thumb Code     0  startup_m2354.o(.text)
    NS_ISP_IRQHandler                        0x00020251   Thumb Code     0  startup_m2354.o(.text)
    OPA0_IRQHandler                          0x00020251   Thumb Code     0  startup_m2354.o(.text)
    PDMA0_IRQHandler                         0x00020251   Thumb Code     0  startup_m2354.o(.text)
    PDMA1_IRQHandler                         0x00020251   Thumb Code     0  startup_m2354.o(.text)
    PWRWU_IRQHandler                         0x00020251   Thumb Code     0  startup_m2354.o(.text)
    QEI0_IRQHandler                          0x00020251   Thumb Code     0  startup_m2354.o(.text)
    QEI1_IRQHandler                          0x00020251   Thumb Code     0  startup_m2354.o(.text)
    QSPI0_IRQHandler                         0x00020251   Thumb Code     0  startup_m2354.o(.text)
    RTC_IRQHandler                           0x00020251   Thumb Code     0  startup_m2354.o(.text)
    RTC_TAMPER_IRQHandler                    0x00020251   Thumb Code     0  startup_m2354.o(.text)
    SC0_IRQHandler                           0x00020251   Thumb Code     0  startup_m2354.o(.text)
    SC1_IRQHandler                           0x00020251   Thumb Code     0  startup_m2354.o(.text)
    SC2_IRQHandler                           0x00020251   Thumb Code     0  startup_m2354.o(.text)
    SC3_IRQHandler                           0x00020251   Thumb Code     0  startup_m2354.o(.text)
    SDH0_IRQHandler                          0x00020251   Thumb Code     0  startup_m2354.o(.text)
    SDH1_IRQHandler                          0x00020251   Thumb Code     0  startup_m2354.o(.text)
    SPI0_IRQHandler                          0x00020251   Thumb Code     0  startup_m2354.o(.text)
    SPI1_IRQHandler                          0x00020251   Thumb Code     0  startup_m2354.o(.text)
    SPI2_IRQHandler                          0x00020251   Thumb Code     0  startup_m2354.o(.text)
    SPI3_IRQHandler                          0x00020251   Thumb Code     0  startup_m2354.o(.text)
    SRAM_IRQHandler                          0x00020251   Thumb Code     0  startup_m2354.o(.text)
    TAMPER_IRQHandler                        0x00020251   Thumb Code     0  startup_m2354.o(.text)
    TMR0_IRQHandler                          0x00020251   Thumb Code     0  startup_m2354.o(.text)
    TMR1_IRQHandler                          0x00020251   Thumb Code     0  startup_m2354.o(.text)
    TMR2_IRQHandler                          0x00020251   Thumb Code     0  startup_m2354.o(.text)
    TMR3_IRQHandler                          0x00020251   Thumb Code     0  startup_m2354.o(.text)
    TMR4_IRQHandler                          0x00020251   Thumb Code     0  startup_m2354.o(.text)
    TMR5_IRQHandler                          0x00020251   Thumb Code     0  startup_m2354.o(.text)
    TRNG_IRQHandler                          0x00020251   Thumb Code     0  startup_m2354.o(.text)
    UART0_IRQHandler                         0x00020251   Thumb Code     0  startup_m2354.o(.text)
    UART1_IRQHandler                         0x00020251   Thumb Code     0  startup_m2354.o(.text)
    UART2_IRQHandler                         0x00020251   Thumb Code     0  startup_m2354.o(.text)
    UART3_IRQHandler                         0x00020251   Thumb Code     0  startup_m2354.o(.text)
    UART4_IRQHandler                         0x00020251   Thumb Code     0  startup_m2354.o(.text)
    UART5_IRQHandler                         0x00020251   Thumb Code     0  startup_m2354.o(.text)
    USBD_IRQHandler                          0x00020251   Thumb Code     0  startup_m2354.o(.text)
    USBH_IRQHandler                          0x00020251   Thumb Code     0  startup_m2354.o(.text)
    USBOTG_IRQHandler                        0x00020251   Thumb Code     0  startup_m2354.o(.text)
    USCI0_IRQHandler                         0x00020251   Thumb Code     0  startup_m2354.o(.text)
    USCI1_IRQHandler                         0x00020251   Thumb Code     0  startup_m2354.o(.text)
    WDT_IRQHandler                           0x00020251   Thumb Code     0  startup_m2354.o(.text)
    WWDT_IRQHandler                          0x00020251   Thumb Code     0  startup_m2354.o(.text)
    SH_DoCommand                             0x00020255   Thumb Code    10  startup_m2354.o(.text)
    __PC                                     0x0002025f   Thumb Code     6  startup_m2354.o(.text)
    SPD_Return                               0x00020265   Thumb Code    24  startup_m2354.o(.text)
    __aeabi_memcpy                           0x0002029d   Thumb Code    36  memcpya.o(.text)
    __aeabi_memcpy4                          0x0002029d   Thumb Code     0  memcpya.o(.text)
    __aeabi_memcpy8                          0x0002029d   Thumb Code     0  memcpya.o(.text)
    __aeabi_uldivmod                         0x000202c1   Thumb Code    96  uldiv.o(.text)
    __I$use$fp                               0x00020321   Thumb Code     0  iusefp.o(.text)
    __aeabi_dadd                             0x00020321   Thumb Code   328  dadd.o(.text)
    __aeabi_dsub                             0x00020469   Thumb Code    12  dadd.o(.text)
    __aeabi_drsub                            0x00020475   Thumb Code    12  dadd.o(.text)
    __aeabi_dmul                             0x00020485   Thumb Code   202  dmul.o(.text)
    __aeabi_ddiv                             0x00020555   Thumb Code   234  ddiv.o(.text)
    __aeabi_d2ulz                            0x00020645   Thumb Code    54  dfixul.o(.text)
    __aeabi_cdrcmple                         0x00020685   Thumb Code    38  cdrcmple.o(.text)
    __scatterload                            0x000206ad   Thumb Code    28  init.o(.text)
    __scatterload_rt2                        0x000206ad   Thumb Code     0  init.o(.text)
    __aeabi_uidiv$div0                       0x000206d1   Thumb Code     0  uidiv_div0.o(.text)
    __aeabi_uidivmod                         0x000206d1   Thumb Code    62  uidiv_div0.o(.text)
    __aeabi_llsl                             0x0002070f   Thumb Code    32  llshl.o(.text)
    _ll_shift_l                              0x0002070f   Thumb Code     0  llshl.o(.text)
    __aeabi_llsr                             0x0002072f   Thumb Code    34  llushr.o(.text)
    _ll_ushift_r                             0x0002072f   Thumb Code     0  llushr.o(.text)
    __aeabi_lasr                             0x00020751   Thumb Code    38  llsshr.o(.text)
    _ll_sshift_r                             0x00020751   Thumb Code     0  llsshr.o(.text)
    _double_round                            0x00020777   Thumb Code    26  depilogue.o(.text)
    _double_epilogue                         0x00020791   Thumb Code   164  depilogue.o(.text)
    CLK_EnableModuleClock                    0x00020835   Thumb Code    52  clk.o(.text.CLK_EnableModuleClock)
    CLK_EnablePLL                            0x0002086d   Thumb Code   432  clk.o(.text.CLK_EnablePLL)
    CLK_EnableXtalRC                         0x00020a45   Thumb Code    20  clk.o(.text.CLK_EnableXtalRC)
    __acle_se_CLK_GetCPUFreq                 0x00020a59   Thumb Code     0  clk.o(.text.CLK_GetCPUFreq)
    __acle_se_CLK_GetHCLKFreq                0x00020bd1   Thumb Code     0  clk.o(.text.CLK_GetHCLKFreq)
    __acle_se_CLK_GetHXTFreq                 0x00020bf1   Thumb Code     0  clk.o(.text.CLK_GetHXTFreq)
    __acle_se_CLK_GetLXTFreq                 0x00020c2d   Thumb Code     0  clk.o(.text.CLK_GetLXTFreq)
    __acle_se_CLK_GetModuleClockDivider      0x00020c69   Thumb Code     0  clk.o(.text.CLK_GetModuleClockDivider)
    __acle_se_CLK_GetModuleClockSource       0x00020ccd   Thumb Code     0  clk.o(.text.CLK_GetModuleClockSource)
    __acle_se_CLK_GetPCLK0Freq               0x00020e01   Thumb Code     0  clk.o(.text.CLK_GetPCLK0Freq)
    __acle_se_CLK_GetPCLK1Freq               0x00020e21   Thumb Code     0  clk.o(.text.CLK_GetPCLK1Freq)
    __acle_se_CLK_GetPLLClockFreq            0x00020e45   Thumb Code     0  clk.o(.text.CLK_GetPLLClockFreq)
    CLK_SetCoreClock                         0x00020ef5   Thumb Code   164  clk.o(.text.CLK_SetCoreClock)
    CLK_SetHCLK                              0x00020fb1   Thumb Code   468  clk.o(.text.CLK_SetHCLK)
    CLK_SetModuleClock                       0x000211c9   Thumb Code   228  clk.o(.text.CLK_SetModuleClock)
    CLK_WaitClockReady                       0x000212c1   Thumb Code    56  clk.o(.text.CLK_WaitClockReady)
    FMC_NSBA_Setup                           0x00021301   Thumb Code   132  system_m2354.o(.text.FMC_NSBA_Setup)
    NSC_Init                                 0x000213a5   Thumb Code    48  system_m2354.o(.text.NSC_Init)
    ProcessHardFault                         0x000213e9   Thumb Code   816  retarget.o(.text.ProcessHardFault)
    SCU_IRQHandler                           0x00021765   Thumb Code   224  system_m2354.o(.text.SCU_IRQHandler)
    SCU_Setup                                0x00021861   Thumb Code   144  system_m2354.o(.text.SCU_Setup)
    SH_Return                                0x0002193d   Thumb Code    14  retarget.o(.text.SH_Return)
    SYS_Init                                 0x0002194d   Thumb Code    64  main.o(.text.SYS_Init)
    SYS_ResetModule                          0x00021999   Thumb Code    72  sys.o(.text.SYS_ResetModule)
    SendChar                                 0x00021a55   Thumb Code    16  retarget.o(.text.SendChar)
    SendChar_ToUART                          0x00021a65   Thumb Code    64  retarget.o(.text.SendChar_ToUART)
    SystemCoreClockUpdate                    0x00021aa9   Thumb Code    40  system_m2354.o(.text.SystemCoreClockUpdate)
    SystemInit                               0x00021ae5   Thumb Code    84  system_m2354.o(.text.SystemInit)
    TZ_SAU_Setup                             0x00021b51   Thumb Code    76  system_m2354.o(.text.TZ_SAU_Setup)
    UART_Init                                0x00021bcd   Thumb Code    20  main.o(.text.UART_Init)
    UART_Open                                0x00021be5   Thumb Code   520  uart.o(.text.UART_Open)
    fputc                                    0x00021e69   Thumb Code    20  retarget.o(.text.fputc)
    main                                     0x00021e7d   Thumb Code    60  main.o(.text.main)
    __0printf                                0x00021ed1   Thumb Code    24  printfa.o(i.__0printf)
    __1printf                                0x00021ed1   Thumb Code     0  printfa.o(i.__0printf)
    __2printf                                0x00021ed1   Thumb Code     0  printfa.o(i.__0printf)
    __c89printf                              0x00021ed1   Thumb Code     0  printfa.o(i.__0printf)
    printf                                   0x00021ed1   Thumb Code     0  printfa.o(i.__0printf)
    __ARM_clz                                0x00021ef1   Thumb Code    46  depilogue.o(i.__ARM_clz)
    __scatterload_copy                       0x00021f1f   Thumb Code    14  handlers.o(i.__scatterload_copy)
    __scatterload_null                       0x00021f2d   Thumb Code     2  handlers.o(i.__scatterload_null)
    __scatterload_zeroinit                   0x00021f2f   Thumb Code    14  handlers.o(i.__scatterload_zeroinit)
    Region$$Table$$Base                      0x00022c74   Number         0  anon$$obj.o(Region$$Table)
    Region$$Table$$Limit                     0x00022c94   Number         0  anon$$obj.o(Region$$Table)
    CLK_GetHXTFreq                           0x00022ca1   Thumb Code     8  anon$$obj.o(Veneer$$CMSE)
    Image$$NSC_ROM$$XO$$Base                 0x00022ca0   Number         0  anon$$obj.o ABSOLUTE
    CLK_GetLXTFreq                           0x00022ca9   Thumb Code     8  anon$$obj.o(Veneer$$CMSE)
    CLK_GetHCLKFreq                          0x00022cb1   Thumb Code     8  anon$$obj.o(Veneer$$CMSE)
    CLK_GetPCLK0Freq                         0x00022cb9   Thumb Code     8  anon$$obj.o(Veneer$$CMSE)
    CLK_GetPCLK1Freq                         0x00022cc1   Thumb Code     8  anon$$obj.o(Veneer$$CMSE)
    CLK_GetCPUFreq                           0x00022cc9   Thumb Code     8  anon$$obj.o(Veneer$$CMSE)
    CLK_GetPLLClockFreq                      0x00022cd1   Thumb Code     8  anon$$obj.o(Veneer$$CMSE)
    CLK_GetModuleClockSource                 0x00022cd9   Thumb Code     8  anon$$obj.o(Veneer$$CMSE)
    CLK_GetModuleClockDivider                0x00022ce1   Thumb Code     8  anon$$obj.o(Veneer$$CMSE)
    Image$$NSC_ROM$$XO$$Limit                0x00022d00   Number         0  anon$$obj.o ABSOLUTE
    g_InitialFWInfo                          0x00038000   Data         368  fwinfo.o(.rodata.g_InitialFWInfo)
    CyclesPerUs                              0x20000000   Data           4  system_m2354.o(.data.CyclesPerUs)
    PllClock                                 0x20000004   Data           4  system_m2354.o(.data.PllClock)
    SystemCoreClock                          0x20000008   Data           4  system_m2354.o(.data.SystemCoreClock)
    __initial_sp                             0x20001810   Data           0  startup_m2354.o(.STACK)
    __stdout                                 0x20001810   Data          84  retarget.o(.bss.__stdout)



==============================================================================

Memory Map of the image

  Image Entry point : 0x00020225

  Load Region NUBL32 (Base: 0x00020000, Size: 0x00002d10, Max: 0xffffffff, ABSOLUTE)

    Execution Region NuBL32.bin (Exec base: 0x00020000, Load base: 0x00020000, Size: 0x00002c94, Max: 0xffffffff, ABSOLUTE)

    Exec Addr    Load Addr    Size         Type   Attr      Idx    E Section Name        Object

    0x00020000   0x00020000   0x00000210   Data   RO           35    RESET               startup_m2354.o
    0x00020210   0x00020210   0x00000000   Code   RO          249  * .ARM.Collect$$$$00000000  mc_p.l(entry.o)
    0x00020210   0x00020210   0x00000004   Code   RO          287    .ARM.Collect$$$$00000001  mc_p.l(entry2.o)
    0x00020214   0x00020214   0x00000004   Code   RO          290    .ARM.Collect$$$$00000004  mc_p.l(entry5.o)
    0x00020218   0x00020218   0x00000000   Code   RO          292    .ARM.Collect$$$$00000008  mc_p.l(entry7b.o)
    0x00020218   0x00020218   0x00000000   Code   RO          294    .ARM.Collect$$$$0000000A  mc_p.l(entry8b.o)
    0x00020218   0x00020218   0x00000008   Code   RO          295    .ARM.Collect$$$$0000000B  mc_p.l(entry9a.o)
    0x00020220   0x00020220   0x00000000   Code   RO          297    .ARM.Collect$$$$0000000D  mc_p.l(entry10a.o)
    0x00020220   0x00020220   0x00000000   Code   RO          299    .ARM.Collect$$$$0000000F  mc_p.l(entry11a.o)
    0x00020220   0x00020220   0x00000004   Code   RO          288    .ARM.Collect$$$$00002712  mc_p.l(entry2.o)
    0x00020224   0x00020224   0x00000078   Code   RO           36  * .text               startup_m2354.o
    0x0002029c   0x0002029c   0x00000024   Code   RO          255    .text               mc_p.l(memcpya.o)
    0x000202c0   0x000202c0   0x00000060   Code   RO          305    .text               mc_p.l(uldiv.o)
    0x00020320   0x00020320   0x00000000   Code   RO          307    .text               mc_p.l(iusefp.o)
    0x00020320   0x00020320   0x00000164   Code   RO          308    .text               mf_p.l(dadd.o)
    0x00020484   0x00020484   0x000000d0   Code   RO          310    .text               mf_p.l(dmul.o)
    0x00020554   0x00020554   0x000000f0   Code   RO          312    .text               mf_p.l(ddiv.o)
    0x00020644   0x00020644   0x00000040   Code   RO          314    .text               mf_p.l(dfixul.o)
    0x00020684   0x00020684   0x00000028   Code   RO          316    .text               mf_p.l(cdrcmple.o)
    0x000206ac   0x000206ac   0x00000024   Code   RO          318    .text               mc_p.l(init.o)
    0x000206d0   0x000206d0   0x0000003e   Code   RO          322    .text               mc_p.l(uidiv_div0.o)
    0x0002070e   0x0002070e   0x00000020   Code   RO          328    .text               mc_p.l(llshl.o)
    0x0002072e   0x0002072e   0x00000022   Code   RO          330    .text               mc_p.l(llushr.o)
    0x00020750   0x00020750   0x00000026   Code   RO          332    .text               mc_p.l(llsshr.o)
    0x00020776   0x00020776   0x000000be   Code   RO          334    .text               mf_p.l(depilogue.o)
    0x00020834   0x00020834   0x00000038   Code   RO          178    .text.CLK_EnableModuleClock  clk.o
    0x0002086c   0x0002086c   0x000001d8   Code   RO          166    .text.CLK_EnablePLL  clk.o
    0x00020a44   0x00020a44   0x00000014   Code   RO          174    .text.CLK_EnableXtalRC  clk.o
    0x00020a58   0x00020a58   0x00000178   Code   RO          160    .text.CLK_GetCPUFreq  clk.o
    0x00020bd0   0x00020bd0   0x00000020   Code   RO          154    .text.CLK_GetHCLKFreq  clk.o
    0x00020bf0   0x00020bf0   0x0000003c   Code   RO          150    .text.CLK_GetHXTFreq  clk.o
    0x00020c2c   0x00020c2c   0x0000003c   Code   RO          152    .text.CLK_GetLXTFreq  clk.o
    0x00020c68   0x00020c68   0x00000064   Code   RO          200    .text.CLK_GetModuleClockDivider  clk.o
    0x00020ccc   0x00020ccc   0x00000134   Code   RO          198    .text.CLK_GetModuleClockSource  clk.o
    0x00020e00   0x00020e00   0x00000020   Code   RO          156    .text.CLK_GetPCLK0Freq  clk.o
    0x00020e20   0x00020e20   0x00000024   Code   RO          158    .text.CLK_GetPCLK1Freq  clk.o
    0x00020e44   0x00020e44   0x000000b0   Code   RO          196    .text.CLK_GetPLLClockFreq  clk.o
    0x00020ef4   0x00020ef4   0x000000bc   Code   RO          162    .text.CLK_SetCoreClock  clk.o
    0x00020fb0   0x00020fb0   0x00000218   Code   RO          168    .text.CLK_SetHCLK   clk.o
    0x000211c8   0x000211c8   0x000000f8   Code   RO          170    .text.CLK_SetModuleClock  clk.o
    0x000212c0   0x000212c0   0x00000040   Code   RO          164    .text.CLK_WaitClockReady  clk.o
    0x00021300   0x00021300   0x000000a4   Code   RO            2    .text.FMC_NSBA_Setup  system_m2354.o
    0x000213a4   0x000213a4   0x00000044   Code   RO           12    .text.NSC_Init      system_m2354.o
    0x000213e8   0x000213e8   0x0000037c   Code   RO           70    .text.ProcessHardFault  retarget.o
    0x00021764   0x00021764   0x000000fc   Code   RO           10    .text.SCU_IRQHandler  system_m2354.o
    0x00021860   0x00021860   0x000000dc   Code   RO            6    .text.SCU_Setup     system_m2354.o
    0x0002193c   0x0002193c   0x0000000e   Code   RO           72    .text.SH_Return     retarget.o
    0x0002194a   0x0002194a   0x00000002   PAD
    0x0002194c   0x0002194c   0x0000004c   Code   RO           43    .text.SYS_Init      main.o
    0x00021998   0x00021998   0x00000050   Code   RO          119    .text.SYS_ResetModule  sys.o
    0x000219e8   0x000219e8   0x00000034   Code   RO            4    .text.SYS_UnlockReg  system_m2354.o
    0x00021a1c   0x00021a1c   0x00000038   Code   RO           49    .text.SYS_UnlockReg  main.o
    0x00021a54   0x00021a54   0x00000010   Code   RO           76    .text.SendChar      retarget.o
    0x00021a64   0x00021a64   0x00000044   Code   RO           74    .text.SendChar_ToUART  retarget.o
    0x00021aa8   0x00021aa8   0x0000003c   Code   RO           16    .text.SystemCoreClockUpdate  system_m2354.o
    0x00021ae4   0x00021ae4   0x0000006c   Code   RO           18    .text.SystemInit    system_m2354.o
    0x00021b50   0x00021b50   0x0000007c   Code   RO           14    .text.TZ_SAU_Setup  system_m2354.o
    0x00021bcc   0x00021bcc   0x00000018   Code   RO           45    .text.UART_Init     main.o
    0x00021be4   0x00021be4   0x00000258   Code   RO          224    .text.UART_Open     uart.o
    0x00021e3c   0x00021e3c   0x0000002c   Code   RO            8    .text.__NVIC_EnableIRQ  system_m2354.o
    0x00021e68   0x00021e68   0x00000014   Code   RO           86    .text.fputc         retarget.o
    0x00021e7c   0x00021e7c   0x00000054   Code   RO           47    .text.main          main.o
    0x00021ed0   0x00021ed0   0x00000020   Code   RO          260    i.__0printf         mc_p.l(printfa.o)
    0x00021ef0   0x00021ef0   0x0000002e   Code   RO          336    i.__ARM_clz         mf_p.l(depilogue.o)
    0x00021f1e   0x00021f1e   0x0000000e   Code   RO          341    i.__scatterload_copy  mc_p.l(handlers.o)
    0x00021f2c   0x00021f2c   0x00000002   Code   RO          342    i.__scatterload_null  mc_p.l(handlers.o)
    0x00021f2e   0x00021f2e   0x0000000e   Code   RO          343    i.__scatterload_zeroinit  mc_p.l(handlers.o)
    0x00021f3c   0x00021f3c   0x00000174   Code   RO          267    i._fp_digits        mc_p.l(printfa.o)
    0x000220b0   0x000220b0   0x000006ec   Code   RO          268    i._printf_core      mc_p.l(printfa.o)
    0x0002279c   0x0002279c   0x00000020   Code   RO          269    i._printf_post_padding  mc_p.l(printfa.o)
    0x000227bc   0x000227bc   0x0000002c   Code   RO          270    i._printf_pre_padding  mc_p.l(printfa.o)
    0x000227e8   0x000227e8   0x00000015   Data   RO           95    .rodata..L__const.ProcessHardFault.info  retarget.o
    0x000227fd   0x000227fd   0x00000003   PAD
    0x00022800   0x00022800   0x00000054   Data   RO           94    .rodata..L__const.ProcessHardFault.ipname  retarget.o
    0x00022854   0x00022854   0x00000030   Data   RO           93    .rodata..L__const.ProcessHardFault.master  retarget.o
    0x00022884   0x00022884   0x00000015   Data   RO           26    .rodata..L__const.SCU_IRQHandler.info  system_m2354.o
    0x00022899   0x00022899   0x00000003   PAD
    0x0002289c   0x0002289c   0x00000054   Data   RO           25    .rodata..L__const.SCU_IRQHandler.ipname  system_m2354.o
    0x000228f0   0x000228f0   0x00000030   Data   RO           24    .rodata..L__const.SCU_IRQHandler.master  system_m2354.o
    0x00022920   0x00022920   0x00000020   Data   RO          202    .rodata.cst32       clk.o
    0x00022940   0x00022940   0x00000060   Data   RO          242    .rodata.cst32       uart.o
    0x000229a0   0x000229a0   0x000000b2   Data   RO           23    .rodata.str1.1      system_m2354.o
    0x00022a52   0x00022a52   0x000000be   Data   RO           51    .rodata.str1.1      main.o
    0x00022b10   0x00022b10   0x00000162   Data   RO           92    .rodata.str1.1      retarget.o
    0x00022c72   0x00022c72   0x00000002   PAD
    0x00022c74   0x00022c74   0x00000020   Data   RO          339    Region$$Table       anon$$obj.o


    Execution Region NSC_ROM (Exec base: 0x00022ca0, Load base: 0x00022ca0, Size: 0x00000060, Max: 0xffffffff, ABSOLUTE)

    Exec Addr    Load Addr    Size         Type   Attr      Idx    E Section Name        Object

    0x00022ca0   0x00022ca0   0x00000060   Code   XO          340    Veneer$$CMSE        anon$$obj.o


    Execution Region RAM (Exec base: 0x20000000, Load base: 0x00022d00, Size: 0x00001864, Max: 0xffffffff, ABSOLUTE)

    Exec Addr    Load Addr    Size         Type   Attr      Idx    E Section Name        Object

    0x20000000   0x00022d00   0x00000004   Data   RW           21    .data.CyclesPerUs   system_m2354.o
    0x20000004   0x00022d04   0x00000004   Data   RW           22    .data.PllClock      system_m2354.o
    0x20000008   0x00022d08   0x00000004   Data   RW           20    .data.SystemCoreClock  system_m2354.o
    0x2000000c   0x00022d0c   0x00000004   PAD
    0x20000010        -       0x00001800   Zero   RW           33    .STACK              startup_m2354.o
    0x20001810        -       0x00000054   Zero   RW           96    .bss.__stdout       retarget.o



  Load Region NUBL32_INFO (Base: 0x00038000, Size: 0x00000170, Max: 0xffffffff, ABSOLUTE)

    Execution Region FwInfo.bin (Exec base: 0x00038000, Load base: 0x00038000, Size: 0x00000170, Max: 0xffffffff, ABSOLUTE)

    Exec Addr    Load Addr    Size         Type   Attr      Idx    E Section Name        Object

    0x00038000   0x00038000   0x00000000   Code   RO           59    .text               fwinfo.o
    0x00038000   0x00038000   0x00000170   Data   RO           60    .rodata.g_InitialFWInfo  fwinfo.o


==============================================================================

Image component sizes


      Code (inc. data)   RO Data    RW Data    ZI Data      Debug   Object Name

      2764        268         32          0          0      12627   clk.o
         0          0        368          0          0        507   fwinfo.o
       240         44        190          0          0       3265   main.o
      1010         80        507          0         84       7185   retarget.o
       120         36        528          0       6144        948   startup_m2354.o
        80          8          0          0          0       5419   sys.o
      1092        252        331         12          0       9937   system_m2354.o
       600         80         96          0          0       5566   uart.o

    ----------------------------------------------------------------------
      6004        768       2092         12       6232      45454   Object Totals
        96          0         32          0          0          0   (incl. Generated)
         2          0          8          0          4          0   (incl. Padding)

    ----------------------------------------------------------------------

      Code (inc. data)   RO Data    RW Data    ZI Data      Debug   Library Member Name

         0          0          0          0          0          0   entry.o
         0          0          0          0          0          0   entry10a.o
         0          0          0          0          0          0   entry11a.o
         8          4          0          0          0          0   entry2.o
         4          0          0          0          0          0   entry5.o
         0          0          0          0          0          0   entry7b.o
         0          0          0          0          0          0   entry8b.o
         8          4          0          0          0          0   entry9a.o
        30          0          0          0          0          0   handlers.o
        36          8          0          0          0         68   init.o
         0          0          0          0          0          0   iusefp.o
        32          0          0          0          0         68   llshl.o
        38          0          0          0          0         68   llsshr.o
        34          0          0          0          0         68   llushr.o
        36          0          0          0          0         60   memcpya.o
      2252         98          0          0          0        412   printfa.o
        62          0          0          0          0         72   uidiv_div0.o
        96          0          0          0          0         84   uldiv.o
        40          2          0          0          0         68   cdrcmple.o
       356          4          0          0          0        140   dadd.o
       240          6          0          0          0         84   ddiv.o
       236          0          0          0          0        216   depilogue.o
        64         10          0          0          0         68   dfixul.o
       208          6          0          0          0         88   dmul.o

    ----------------------------------------------------------------------
      3780        142          0          0          0       1564   Library Totals
         0          0          0          0          0          0   (incl. Padding)

    ----------------------------------------------------------------------

      Code (inc. data)   RO Data    RW Data    ZI Data      Debug   Library Name

      2636        114          0          0          0        900   mc_p.l
      1144         28          0          0          0        664   mf_p.l

    ----------------------------------------------------------------------
      3780        142          0          0          0       1564   Library Totals

    ----------------------------------------------------------------------

==============================================================================


      Code (inc. data)   RO Data    RW Data    ZI Data      Debug   

      9784        910       2092         12       6232      46314   Grand Totals
      9784        910       2092         12       6232      46314   ELF Image Totals
      9784        910       2092         12          0          0   ROM Totals

==============================================================================

    Total RO  Size (Code + RO Data)                11876 (  11.60kB)
    Total RW  Size (RW Data + ZI Data)              6244 (   6.10kB)
    Total ROM Size (Code + RO Data + RW Data)      11888 (  11.61kB)

==============================================================================

